(lp0
ccopy_reg
_reconstructor
p1
(cRiotAPI
GameData
p2
c__builtin__
object
p3
Ntp4
Rp5
(dp6
S'timePlayed'
p7
I1823
sS'win'
p8
I01
sS'wardPlaced'
p9
I25
sS'mapId'
p10
I11
sS'totalDamageDealt'
p11
I21109
sS'magicDamageDealtToChampions'
p12
I6271
sS'playerPosition'
p13
I4
sS'subType'
p14
VRANKED_SOLO_5x5
p15
sS'teamId'
p16
I100
sS'largestMultiKill'
p17
I1
sS'ipEarned'
p18
I403
sS'magicDamageTaken'
p19
I5253
sS'totalTimeCrowdControlDealt'
p20
I103
sS'champlevel'
p21
I15
sS'wardKilled'
p22
I3
sS'championId'
p23
I25
sS'item2'
p24
I2049
sS'item3'
p25
I1001
sS'createDate'
p26
I1444182850378
sS'item1'
p27
I3222
sS'gameMode'
p28
VCLASSIC
p29
sS'invalid'
p30
I00
sS'item5'
p31
I2010
sS'item6'
p32
I3364
sS'visionWardsBought'
p33
I3
sS'neutralMinionsKilledYourJungle'
p34
I3
sS'championsKilled'
p35
I2
sS'gameId'
p36
I1971308505
sS'trueDamageTaken'
p37
I124
sS'minionsKilled'
p38
I9
sS'physicalDamageDealtToChampions'
p39
I1446
sS'sumlevel'
p40
I30
sS'assists'
p41
I16
sS'neutralMinionsKilled'
p42
I3
sS'playerRole'
p43
I2
sS'spell1'
p44
I3
sS'spell2'
p45
I4
sS'goldSpent'
p46
I8340
sS'fellowPlayers'
p47
(lp48
(dp49
VteamId
p50
I100
sVchampionId
p51
I236
sVsummonerId
p52
I22980754
sa(dp53
VteamId
p54
I100
sVchampionId
p55
I56
sVsummonerId
p56
I22525459
sa(dp57
VteamId
p58
I200
sVchampionId
p59
I99
sVsummonerId
p60
I23340575
sa(dp61
VteamId
p62
I200
sVchampionId
p63
I412
sVsummonerId
p64
I36827542
sa(dp65
VteamId
p66
I100
sVchampionId
p67
I8
sVsummonerId
p68
I24956572
sa(dp69
VteamId
p70
I200
sVchampionId
p71
I119
sVsummonerId
p72
I30014262
sa(dp73
VteamId
p74
I200
sVchampionId
p75
I50
sVsummonerId
p76
I38670012
sa(dp77
VteamId
p78
I100
sVchampionId
p79
I61
sVsummonerId
p80
I38140598
sa(dp81
VteamId
p82
I200
sVchampionId
p83
I5
sVsummonerId
p84
I292020
sasS'physicalDamageDealtPlayer'
p85
I7044
sS'totalHeal'
p86
I491
sS'gameType'
p87
VMATCHED_GAME
p88
sS'item4'
p89
I3098
sS'goldEarned'
p90
I9270
sS'turretsKilled'
p91
I1
sS'totalDamageDealtToChampions'
p92
I7717
sS'totalUnitsHealed'
p93
I1
sS'team'
p94
I100
sS'numDeaths'
p95
I4
sS'totalDamageTaken'
p96
I14612
sS'magicDamageDealtPlayer'
p97
I14065
sS'item0'
p98
I3157
sS'physicalDamageTaken'
p99
I9235
sbag1
(g2
g3
Ntp100
Rp101
(dp102
g7
I1732
sg97
I448
sg8
I01
sg9
I1
sg10
I11
sg11
I168009
sg12
I299
sg13
I4
sg14
VNONE
p103
sg16
I100
sg17
I3
sS'largestKillingSpree'
p104
I13
sg18
I0
sg19
I8586
sS'barracksKilled'
p105
I2
sg20
I343
sg21
I17
sS'trueDamageDealtPlayer'
p106
I540
sS'neutralMinionsKilledEnemyJungle'
p107
I3
sg23
I133
sg24
I3006
sg25
I3072
sg26
I1445986601464
sg27
I3031
sg28
VCLASSIC
p108
sg30
I00
sg31
I1051
sg32
I3340
sg45
I4
sS'doubleKills'
p109
I3
sS'tripleKills'
p110
I1
sg34
I3
sg35
I26
sg36
I1991902376
sS'largestCriticalStrike'
p111
I1022
sg38
I173
sg40
I30
sg41
I2
sg42
I6
sg43
I3
sg39
I43146
sg44
I7
sg46
I10275
sS'trueDamageDealtToChampions'
p112
I270
sg85
I167020
sg86
I1581
sg87
VCUSTOM_GAME
p113
sg89
I3086
sg90
I16299
sg91
I4
sg92
I43715
sg93
I2
sg94
I100
sg95
I2
sg96
I15710
sS'killingSprees'
p114
I3
sg98
I1055
sg99
I7124
sbag1
(g2
g3
Ntp115
Rp116
(dp117
g8
I01
sg28
VARAM
p118
sg10
I12
sg11
I34643
sg14
VNONE
p119
sg16
I100
sg91
I3
sg18
I0
sg105
I1
sg20
I172
sg21
I12
sg106
I350
sg23
I33
sg24
I3069
sg26
I1446585945847
sg27
I3091
sg32
I2052
sg30
I00
sg38
I57
sg7
I617
sg36
I1997896776
sg40
I30
sg44
I32
sg45
I4
sg46
I5840
sg85
I17645
sg86
I832
sg87
VCUSTOM_GAME
p120
sg97
I16648
sg90
I5980
sg93
I1
sg94
I100
sg95
I2
sg96
I3783
sg98
I3047
sg99
I3783
sbag1
(g2
g3
Ntp121
Rp122
(dp123
g7
I3054
sg8
I01
sg9
I30
sg10
I11
sg11
I347953
sg13
I1
sg14
VRANKED_SOLO_5x5
p124
sg16
I200
sg17
I3
sg104
I8
sg18
I450
sg19
I18114
sg20
I243
sg21
I18
sg106
I1232
sg107
I13
sg23
I92
sg24
I3072
sg25
I3035
sg26
I1447122008627
sg27
I1333
sg28
VCLASSIC
p125
sg30
I00
sg31
I3083
sg32
I3361
sg33
I3
sg110
I2
sg22
I1
sg34
I20
sg35
I13
sg36
I2004727586
sg109
I2
sg37
I1237
sg38
I312
sg39
I46047
sg40
I30
sg41
I11
sg42
I33
sg43
I4
sg44
I12
sg45
I4
sg46
I18130
sg112
I784
sg47
(lp126
(dp127
VteamId
p128
I100
sVchampionId
p129
I7
sVsummonerId
p130
I25000065
sa(dp131
VteamId
p132
I100
sVchampionId
p133
I421
sVsummonerId
p134
I24595003
sa(dp135
VteamId
p136
I100
sVchampionId
p137
I98
sVsummonerId
p138
I36583796
sa(dp139
VteamId
p140
I200
sVchampionId
p141
I254
sVsummonerId
p142
I19509562
sa(dp143
VteamId
p144
I100
sVchampionId
p145
I18
sVsummonerId
p146
I25254687
sa(dp147
VteamId
p148
I200
sVchampionId
p149
I222
sVsummonerId
p150
I36441703
sa(dp151
VteamId
p152
I200
sVchampionId
p153
I40
sVsummonerId
p154
I26426267
sa(dp155
VteamId
p156
I200
sVchampionId
p157
I61
sVsummonerId
p158
I39449539
sa(dp159
VteamId
p160
I100
sVchampionId
p161
I143
sVsummonerId
p162
I19972272
sasg85
I346721
sg86
I6503
sg87
VMATCHED_GAME
p163
sg89
I3026
sg90
I20219
sg92
I46831
sg93
I1
sg94
I200
sg95
I4
sg96
I40120
sg114
I2
sg98
I3074
sg99
I20767
sbag1
(g2
g3
Ntp164
Rp165
(dp166
g7
I1769
sg8
I01
sg9
I11
sg10
I11
sg11
I153422
sg13
I1
sg14
VRANKED_SOLO_5x5
p167
sg16
I200
sg17
I1
sg104
I2
sg18
I253
sg19
I4005
sg105
I1
sg20
I98
sg21
I15
sg107
I4
sg23
I92
sg24
I1333
sg25
I1031
sg26
I1447125380548
sg27
I3142
sg28
VCLASSIC
p168
sg30
I00
sg31
I1057
sg32
I3361
sg33
I3
sg22
I1
sg34
I7
sg35
I2
sg36
I2004820103
sg111
I753
sg37
I802
sg38
I203
sg39
I15004
sg40
I30
sg41
I4
sg42
I11
sg43
I4
sg44
I12
sg45
I4
sg46
I10155
sg47
(lp169
(dp170
VteamId
p171
I200
sVchampionId
p172
I53
sVsummonerId
p173
I38181757
sa(dp174
VteamId
p175
I200
sVchampionId
p176
I429
sVsummonerId
p177
I40869698
sa(dp178
VteamId
p179
I100
sVchampionId
p180
I22
sVsummonerId
p181
I35744603
sa(dp182
VteamId
p183
I100
sVchampionId
p184
I267
sVsummonerId
p185
I45244758
sa(dp186
VteamId
p187
I200
sVchampionId
p188
I254
sVsummonerId
p189
I19509562
sa(dp190
VteamId
p191
I200
sVchampionId
p192
I90
sVsummonerId
p193
I29604599
sa(dp194
VteamId
p195
I100
sVchampionId
p196
I64
sVsummonerId
p197
I40315181
sa(dp198
VteamId
p199
I100
sVchampionId
p200
I120
sVsummonerId
p201
I32391522
sa(dp202
VteamId
p203
I100
sVchampionId
p204
I26
sVsummonerId
p205
I34353799
sasg85
I153422
sg86
I2008
sg87
VMATCHED_GAME
p206
sg89
I1055
sg90
I10925
sg91
I2
sg92
I15004
sg93
I1
sg94
I200
sg95
I5
sg96
I22324
sg114
I1
sg98
I3074
sg99
I17516
sbag1
(g2
g3
Ntp207
Rp208
(dp209
g8
I00
sg9
I1
sg10
I11
sg11
I85
sg14
VRANKED_SOLO_5x5
p210
sg16
I100
sg18
I0
sg19
I123
sg21
I4
sg23
I412
sg26
I1447182237174
sg27
I2010
sg28
VCLASSIC
p211
sg30
I00
sg32
I3340
sg7
I951
sg36
I2005442357
sg38
I1
sg40
I30
sg43
I2
sg44
I3
sg45
I4
sg46
I505
sg47
(lp212
(dp213
VteamId
p214
I100
sVchampionId
p215
I157
sVsummonerId
p216
I39203048
sa(dp217
VteamId
p218
I200
sVchampionId
p219
I429
sVsummonerId
p220
I45754405
sa(dp221
VteamId
p222
I200
sVchampionId
p223
I92
sVsummonerId
p224
I45583755
sa(dp225
VteamId
p226
I200
sVchampionId
p227
I25
sVsummonerId
p228
I25902177
sa(dp229
VteamId
p230
I100
sVchampionId
p231
I117
sVsummonerId
p232
I232131
sa(dp233
VteamId
p234
I200
sVchampionId
p235
I110
sVsummonerId
p236
I24109950
sa(dp237
VteamId
p238
I100
sVchampionId
p239
I154
sVsummonerId
p240
I26114887
sa(dp241
VteamId
p242
I200
sVchampionId
p243
I79
sVsummonerId
p244
I24200500
sa(dp245
VteamId
p246
I100
sVchampionId
p247
I18
sVsummonerId
p248
I19638140
sasg85
I47
sg87
VMATCHED_GAME
p249
sg97
I38
sg90
I2305
sg94
I100
sg95
I1
sg96
I719
sg98
I3302
sg99
I595
sbag1
(g2
g3
Ntp250
Rp251
(dp252
g7
I2051
sg8
I00
sg9
I13
sg10
I11
sg11
I103684
sg12
I11532
sg13
I1
sg14
VRANKED_SOLO_5x5
p253
sg16
I200
sg17
I1
sg104
I2
sg18
I64
sg19
I12017
sg97
I73823
sg20
I73
sg21
I16
sg23
I98
sg24
I1324
sg25
I3211
sg26
I1447187559112
sg27
I3068
sg28
VCLASSIC
p254
sg30
I00
sg31
I3083
sg32
I3361
sg33
I2
sg35
I2
sg36
I2005456038
sg37
I670
sg38
I205
sg39
I2188
sg40
I30
sg41
I14
sg43
I4
sg44
I12
sg45
I4
sg46
I11225
sg47
(lp255
(dp256
VteamId
p257
I200
sVchampionId
p258
I222
sVsummonerId
p259
I25038372
sa(dp260
VteamId
p261
I100
sVchampionId
p262
I412
sVsummonerId
p263
I19751507
sa(dp264
VteamId
p265
I200
sVchampionId
p266
I13
sVsummonerId
p267
I64883467
sa(dp268
VteamId
p269
I100
sVchampionId
p270
I1
sVsummonerId
p271
I20427186
sa(dp272
VteamId
p273
I100
sVchampionId
p274
I105
sVsummonerId
p275
I21096276
sa(dp276
VteamId
p277
I200
sVchampionId
p278
I60
sVsummonerId
p279
I46182270
sa(dp280
VteamId
p281
I200
sVchampionId
p282
I117
sVsummonerId
p283
I27932750
sa(dp284
VteamId
p285
I100
sVchampionId
p286
I78
sVsummonerId
p287
I24330608
sa(dp288
VteamId
p289
I100
sVchampionId
p290
I429
sVsummonerId
p291
I37292929
sasg85
I29860
sg86
I4461
sg87
VMATCHED_GAME
p292
sg89
I3044
sg90
I11759
sg92
I13721
sg93
I1
sg94
I200
sg95
I3
sg96
I35520
sg114
I1
sg98
I1031
sg99
I22832
sbag1
(g2
g3
Ntp293
Rp294
(dp295
g8
I00
sg9
I24
sg10
I11
sg11
I20532
sg12
I8742
sg13
I4
sg14
VRANKED_SOLO_5x5
p296
sg16
I100
sg18
I58
sg19
I12311
sg20
I598
sg21
I12
sg106
I3266
sg107
I1
sg23
I201
sg24
I1001
sg26
I1447184964120
sg27
I3800
sg28
VCLASSIC
p297
sg30
I00
sg31
I2049
sg32
I3341
sg33
I4
sg22
I4
sg7
I1839
sg36
I2005461968
sg37
I312
sg38
I28
sg39
I1258
sg40
I30
sg41
I10
sg42
I1
sg43
I2
sg44
I3
sg45
I4
sg46
I6335
sg47
(lp298
(dp299
VteamId
p300
I200
sVchampionId
p301
I53
sVsummonerId
p302
I23199982
sa(dp303
VteamId
p304
I100
sVchampionId
p305
I67
sVsummonerId
p306
I25038372
sa(dp307
VteamId
p308
I200
sVchampionId
p309
I18
sVsummonerId
p310
I38071109
sa(dp311
VteamId
p312
I200
sVchampionId
p313
I112
sVsummonerId
p314
I35396892
sa(dp315
VteamId
p316
I200
sVchampionId
p317
I17
sVsummonerId
p318
I21025042
sa(dp319
VteamId
p320
I100
sVchampionId
p321
I79
sVsummonerId
p322
I64883467
sa(dp323
VteamId
p324
I100
sVchampionId
p325
I99
sVsummonerId
p326
I303530
sa(dp327
VteamId
p328
I200
sVchampionId
p329
I60
sVsummonerId
p330
I22752693
sa(dp331
VteamId
p332
I100
sVchampionId
p333
I114
sVsummonerId
p334
I27932750
sasg85
I5650
sg86
I1312
sg87
VMATCHED_GAME
p335
sg97
I11615
sg90
I6948
sg92
I10000
sg93
I5
sg94
I100
sg95
I5
sg96
I20151
sg98
I3401
sg99
I7528
sbag1
(g2
g3
Ntp336
Rp337
(dp338
g7
I1779
sg97
I8877
sg8
I01
sg9
I16
sg10
I11
sg11
I130790
sg12
I1750
sg13
I1
sg14
VRANKED_SOLO_5x5
p339
sg16
I100
sg17
I1
sg104
I3
sg18
I85
sg19
I6515
sg105
I1
sg20
I858
sg21
I17
sg106
I456
sg23
I150
sg24
I3047
sg25
I3143
sg26
I1447190452782
sg27
I3071
sg28
VCLASSIC
p340
sg30
I00
sg31
I1011
sg32
I3361
sg33
I2
sg34
I3
sg35
I5
sg36
I2005494757
sg111
I368
sg37
I590
sg38
I194
sg39
I19311
sg40
I30
sg41
I11
sg42
I3
sg43
I4
sg44
I12
sg45
I4
sg46
I10180
sg112
I356
sg47
(lp341
(dp342
VteamId
p343
I200
sVchampionId
p344
I222
sVsummonerId
p345
I43413604
sa(dp346
VteamId
p347
I200
sVchampionId
p348
I12
sVsummonerId
p349
I36259319
sa(dp350
VteamId
p351
I100
sVchampionId
p352
I111
sVsummonerId
p353
I26687317
sa(dp354
VteamId
p355
I200
sVchampionId
p356
I101
sVsummonerId
p357
I23263013
sa(dp358
VteamId
p359
I100
sVchampionId
p360
I67
sVsummonerId
p361
I21041048
sa(dp362
VteamId
p363
I100
sVchampionId
p364
I161
sVsummonerId
p365
I19475999
sa(dp366
VteamId
p367
I200
sVchampionId
p368
I62
sVsummonerId
p369
I56016163
sa(dp370
VteamId
p371
I100
sVchampionId
p372
I64
sVsummonerId
p373
I20833031
sa(dp374
VteamId
p375
I200
sVchampionId
p376
I24
sVsummonerId
p377
I26816855
sasg85
I121457
sg86
I1960
sg87
VMATCHED_GAME
p378
sg89
I3155
sg90
I11478
sg91
I2
sg92
I21418
sg93
I1
sg94
I100
sg95
I2
sg96
I22331
sg114
I1
sg98
I1055
sg99
I15226
sbag1
(g2
g3
Ntp379
Rp380
(dp381
g7
I2324
sg8
I01
sg9
I16
sg10
I11
sg11
I365908
sg12
I8734
sg13
I2
sg14
VNORMAL
p382
sg16
I200
sg17
I2
sg104
I9
sg18
I256
sg19
I11558
sg97
I91723
sg20
I381
sg21
I18
sg106
I2575
sg107
I11
sg23
I157
sg24
I3031
sg25
I1301
sg26
I1447267302923
sg27
I3087
sg28
VCLASSIC
p383
sg30
I00
sg31
I3026
sg32
I3340
sg33
I2
sg34
I6
sg35
I25
sg109
I7
sg36
I2006447950
sg111
I847
sg37
I1758
sg38
I331
sg39
I54677
sg40
I30
sg41
I6
sg42
I17
sg43
I4
sg44
I3
sg45
I4
sg46
I18900
sg112
I1455
sg47
(lp384
(dp385
VteamId
p386
I100
sVchampionId
p387
I5
sVsummonerId
p388
I39043335
sa(dp389
VteamId
p390
I200
sVchampionId
p391
I51
sVsummonerId
p392
I45394630
sa(dp393
VteamId
p394
I100
sVchampionId
p395
I64
sVsummonerId
p396
I40711396
sa(dp397
VteamId
p398
I100
sVchampionId
p399
I143
sVsummonerId
p400
I48499926
sa(dp401
VteamId
p402
I100
sVchampionId
p403
I203
sVsummonerId
p404
I38976466
sa(dp405
VteamId
p406
I200
sVchampionId
p407
I25
sVsummonerId
p408
I49779698
sa(dp409
VteamId
p410
I200
sVchampionId
p411
I412
sVsummonerId
p412
I34516002
sa(dp413
VteamId
p414
I100
sVchampionId
p415
I412
sVsummonerId
p416
I57316375
sa(dp417
VteamId
p418
I200
sVchampionId
p419
I107
sVsummonerId
p420
I47797258
sasg85
I271610
sg86
I3787
sg87
VMATCHED_GAME
p421
sg89
I3072
sg90
I23190
sg91
I2
sg92
I64866
sg93
I1
sg94
I200
sg95
I9
sg96
I41508
sg114
I6
sg98
I3036
sg99
I28191
sba.