(lp0
ccopy_reg
_reconstructor
p1
(cRiotAPI
GameData
p2
c__builtin__
object
p3
Ntp4
Rp5
(dp6
S'timePlayed'
p7
I1540
sS'win'
p8
I01
sS'wardPlaced'
p9
I2
sS'mapId'
p10
I11
sS'totalDamageDealt'
p11
I91872
sS'magicDamageDealtToChampions'
p12
I2207
sS'playerPosition'
p13
I1
sS'subType'
p14
VBOT
p15
sS'teamId'
p16
I100
sS'largestMultiKill'
p17
I2
sS'largestKillingSpree'
p18
I12
sS'ipEarned'
p19
I233
sS'magicDamageTaken'
p20
I4687
sS'magicDamageDealtPlayer'
p21
I2207
sS'totalTimeCrowdControlDealt'
p22
I560
sS'champlevel'
p23
I14
sS'trueDamageDealtPlayer'
p24
I1058
sS'championId'
p25
I86
sS'item2'
p26
I3009
sS'item3'
p27
I3742
sS'createDate'
p28
I1442462092350
sS'item1'
p29
I3082
sS'gameMode'
p30
VCLASSIC
p31
sS'invalid'
p32
I00
sS'physicalDamageDealtToChampions'
p33
I14166
sS'item6'
p34
I3340
sS'neutralMinionsKilledYourJungle'
p35
I3
sS'championsKilled'
p36
I14
sS'gameId'
p37
I1952991965
sS'doubleKills'
p38
I2
sS'minionsKilled'
p39
I110
sS'sumlevel'
p40
I1
sS'assists'
p41
I5
sS'neutralMinionsKilled'
p42
I3
sS'playerRole'
p43
I2
sS'spell1'
p44
I6
sS'spell2'
p45
I7
sS'goldSpent'
p46
I8650
sS'trueDamageDealtToChampions'
p47
I1058
sS'fellowPlayers'
p48
(lp49
(dp50
VteamId
p51
I100
sVchampionId
p52
I25
sVsummonerId
p53
I68211758
sa(dp54
VteamId
p55
I100
sVchampionId
p56
I96
sVsummonerId
p57
I70492308
sa(dp58
VteamId
p59
I100
sVchampionId
p60
I22
sVsummonerId
p61
I34976419
sa(dp62
VteamId
p63
I100
sVchampionId
p64
I222
sVsummonerId
p65
I69231526
sasS'physicalDamageDealtPlayer'
p66
I88606
sS'totalHeal'
p67
I1485
sS'gameType'
p68
VMATCHED_GAME
p69
sS'item4'
p70
I1053
sS'goldEarned'
p71
I11272
sS'turretsKilled'
p72
I1
sS'totalDamageDealtToChampions'
p73
I17432
sS'totalUnitsHealed'
p74
I2
sS'team'
p75
I100
sS'numDeaths'
p76
I1
sS'totalDamageTaken'
p77
I15101
sS'killingSprees'
p78
I2
sS'item0'
p79
I3071
sS'physicalDamageTaken'
p80
I10413
sbag1
(g2
g3
Ntp81
Rp82
(dp83
g7
I1262
sg8
I01
sg30
VCLASSIC
p84
sg10
I11
sg11
I40778
sg12
I2964
sg13
I4
sg14
VBOT
p85
sg16
I100
sg17
I2
sg18
I7
sg19
I218
sg20
I575
sg21
I29107
sg22
I218
sg23
I13
sg25
I99
sg26
I1052
sg27
I3020
sg28
I1443223830611
sg29
I3027
sg34
I3340
sg32
I00
sS'item5'
p86
I3108
sg39
I55
sg36
I7
sg37
I1960780198
sg38
I1
sg33
I1229
sg40
I2
sg41
I3
sg43
I4
sg44
I6
sg45
I7
sg46
I6425
sg48
(lp87
(dp88
VteamId
p89
I100
sVchampionId
p90
I22
sVsummonerId
p91
I71191352
sa(dp92
VteamId
p93
I100
sVchampionId
p94
I222
sVsummonerId
p95
I71041488
sa(dp96
VteamId
p97
I100
sVchampionId
p98
I80
sVsummonerId
p99
I66171963
sa(dp100
VteamId
p101
I100
sVchampionId
p102
I107
sVsummonerId
p103
I71000746
sasg66
I11671
sg67
I655
sg68
VMATCHED_GAME
p104
sg70
I3028
sg71
I8404
sg72
I2
sg73
I4193
sg74
I1
sg75
I100
sg77
I4392
sg78
I1
sg79
I3301
sg80
I3817
sbag1
(g2
g3
Ntp105
Rp106
(dp107
g7
I1255
sg8
I01
sg30
VCLASSIC
p108
sg10
I11
sg11
I22039
sg12
I546
sg13
I4
sg14
VBOT
p109
sg16
I100
sg17
I1
sg19
I65
sg20
I1061
sS'barracksKilled'
p110
I1
sg22
I10
sg23
I11
sg25
I222
sg26
I1018
sg28
I1443236255509
sg29
I1038
sg34
I3340
sg32
I00
sg33
I2671
sg39
I12
sg36
I1
sg37
I1961209599
sS'largestCriticalStrike'
p111
I289
sg40
I2
sg41
I9
sg43
I2
sg44
I6
sg45
I7
sg46
I2790
sg48
(lp112
(dp113
VteamId
p114
I100
sVchampionId
p115
I113
sVsummonerId
p116
I47532464
sa(dp117
VteamId
p118
I100
sVchampionId
p119
I6
sVsummonerId
p120
I52261926
sa(dp121
VteamId
p122
I100
sVchampionId
p123
I69
sVsummonerId
p124
I68211758
sa(dp125
VteamId
p126
I100
sVchampionId
p127
I23
sVsummonerId
p128
I34976419
sasg66
I21031
sg67
I329
sg68
VMATCHED_GAME
p129
sg21
I1007
sg71
I5282
sg72
I4
sg73
I3218
sg74
I1
sg75
I100
sg76
I1
sg77
I5004
sg79
I1055
sg80
I3943
sbag1
(g2
g3
Ntp130
Rp131
(dp132
g8
I01
sg30
VCLASSIC
p133
sg10
I11
sg11
I40144
sg12
I812
sg13
I2
sg14
VNONE
p134
sg16
I100
sg72
I2
sg19
I0
sg20
I499
sg22
I58
sg23
I13
sg25
I25
sg26
I3165
sg28
I1445052166906
sg29
I1056
sg34
I3340
sg32
I00
sg33
I48
sg39
I72
sg7
I1598
sg37
I1981034234
sg40
I3
sg43
I4
sg44
I6
sg45
I7
sg46
I3870
sg48
(lp135
(dp136
VteamId
p137
I100
sVchampionId
p138
I121
sVsummonerId
p139
I34516002
sasg66
I17110
sg68
VCUSTOM_GAME
p140
sg21
I23034
sg71
I6107
sg73
I861
sg75
I100
sg76
I1
sg77
I6600
sg79
I3020
sg80
I6100
sbag1
(g2
g3
Ntp141
Rp142
(dp143
g8
I01
sg30
VCLASSIC
p144
sg10
I11
sg11
I12947
sg12
I2871
sg13
I2
sg14
VBOT
p145
sg16
I100
sg72
I2
sg19
I222
sg20
I3508
sg110
I1
sg22
I114
sg23
I12
sg25
I99
sg26
I3028
sg27
I3108
sg28
I1445050181570
sg34
I3340
sg32
I00
sg33
I972
sg39
I16
sg7
I1362
sg37
I1981522956
sg40
I3
sg41
I8
sg43
I2
sg44
I6
sg45
I7
sg46
I2695
sg48
(lp146
(dp147
VteamId
p148
I100
sVchampionId
p149
I5
sVsummonerId
p150
I42882429
sa(dp151
VteamId
p152
I100
sVchampionId
p153
I79
sVsummonerId
p154
I69520177
sa(dp155
VteamId
p156
I100
sVchampionId
p157
I222
sVsummonerId
p158
I71593065
sa(dp159
VteamId
p160
I100
sVchampionId
p161
I15
sVsummonerId
p162
I34516002
sasg66
I7575
sg67
I165
sg68
VMATCHED_GAME
p163
sg70
I1052
sg71
I5493
sg73
I3843
sg74
I1
sg75
I100
sg76
I2
sg77
I6516
sg21
I5372
sg79
I1056
sg80
I3008
sba.