(lp0
ccopy_reg
_reconstructor
p1
(cRiotAPI
GameData
p2
c__builtin__
object
p3
Ntp4
Rp5
(dp6
S'timePlayed'
p7
I2116
sS'win'
p8
I00
sS'wardPlaced'
p9
I13
sS'mapId'
p10
I11
sS'totalDamageDealt'
p11
I217846
sS'magicDamageDealtToChampions'
p12
I1134
sS'playerPosition'
p13
I1
sS'subType'
p14
VRANKED_SOLO_5x5
p15
sS'teamId'
p16
I200
sS'largestMultiKill'
p17
I2
sS'largestKillingSpree'
p18
I3
sS'ipEarned'
p19
I65
sS'magicDamageTaken'
p20
I16298
sS'magicDamageDealtPlayer'
p21
I20701
sS'totalTimeCrowdControlDealt'
p22
I162
sS'champlevel'
p23
I18
sS'trueDamageDealtPlayer'
p24
I65
sS'neutralMinionsKilledEnemyJungle'
p25
I4
sS'championId'
p26
I92
sS'item2'
p27
I3087
sS'item3'
p28
I1334
sS'createDate'
p29
I1447270036533
sS'item1'
p30
I1038
sS'gameMode'
p31
VCLASSIC
p32
sS'invalid'
p33
I00
sS'item5'
p34
I3031
sS'item6'
p35
I3340
sS'doubleKills'
p36
I1
sS'neutralMinionsKilledYourJungle'
p37
I16
sS'championsKilled'
p38
I7
sS'gameId'
p39
I2006492117
sS'largestCriticalStrike'
p40
I1162
sS'trueDamageTaken'
p41
I240
sS'minionsKilled'
p42
I252
sS'physicalDamageDealtToChampions'
p43
I22497
sS'sumlevel'
p44
I30
sS'assists'
p45
I4
sS'neutralMinionsKilled'
p46
I20
sS'playerRole'
p47
I4
sS'spell1'
p48
I12
sS'spell2'
p49
I4
sS'goldSpent'
p50
I13800
sS'trueDamageDealtToChampions'
p51
I65
sS'fellowPlayers'
p52
(lp53
(dp54
VteamId
p55
I100
sVchampionId
p56
I64
sVsummonerId
p57
I27805632
sa(dp58
VteamId
p59
I200
sVchampionId
p60
I61
sVsummonerId
p61
I38827142
sa(dp62
VteamId
p63
I200
sVchampionId
p64
I81
sVsummonerId
p65
I31660128
sa(dp66
VteamId
p67
I200
sVchampionId
p68
I111
sVsummonerId
p69
I20765610
sa(dp70
VteamId
p71
I200
sVchampionId
p72
I16
sVsummonerId
p73
I34516002
sa(dp74
VteamId
p75
I100
sVchampionId
p76
I222
sVsummonerId
p77
I45550241
sa(dp78
VteamId
p79
I100
sVchampionId
p80
I412
sVsummonerId
p81
I23148816
sa(dp82
VteamId
p83
I100
sVchampionId
p84
I68
sVsummonerId
p85
I30988875
sa(dp86
VteamId
p87
I100
sVchampionId
p88
I7
sVsummonerId
p89
I39614117
sasS'physicalDamageDealtPlayer'
p90
I197079
sS'totalHeal'
p91
I2727
sS'gameType'
p92
VMATCHED_GAME
p93
sS'item4'
p94
I1053
sS'goldEarned'
p95
I15040
sS'turretsKilled'
p96
I2
sS'totalDamageDealtToChampions'
p97
I23697
sS'totalUnitsHealed'
p98
I1
sS'team'
p99
I200
sS'numDeaths'
p100
I10
sS'totalDamageTaken'
p101
I33456
sS'killingSprees'
p102
I2
sS'item0'
p103
I3074
sS'physicalDamageTaken'
p104
I16917
sbag1
(g2
g3
Ntp105
Rp106
(dp107
g7
I1668
sg8
I01
sg9
I8
sg10
I11
sg11
I127286
sg12
I1365
sg13
I3
sg14
VNORMAL
p108
sg16
I200
sg17
I1
sg18
I4
sg19
I80
sg20
I3292
sg21
I9759
sg22
I506
sg23
I14
sg24
I9469
sg25
I10
sg26
I56
sg27
I3074
sg29
I1447275266316
sg30
I3006
sg31
VCLASSIC
p109
sg33
I00
sg43
I5838
sg35
I3340
sS'visionWardsBought'
p110
I1
sS'wardKilled'
p111
I1
sg37
I51
sg38
I5
sg39
I2006531971
sg41
I495
sg42
I38
sg44
I30
sg45
I7
sg46
I61
sg48
I4
sg49
I11
sg50
I7875
sg51
I835
sg52
(lp112
(dp113
VteamId
p114
I100
sVchampionId
p115
I412
sVsummonerId
p116
I40829054
sa(dp117
VteamId
p118
I200
sVchampionId
p119
I157
sVsummonerId
p120
I22980754
sa(dp121
VteamId
p122
I200
sVchampionId
p123
I54
sVsummonerId
p124
I19509562
sa(dp125
VteamId
p126
I200
sVchampionId
p127
I25
sVsummonerId
p128
I34516002
sa(dp129
VteamId
p130
I100
sVchampionId
p131
I24
sVsummonerId
p132
I61631029
sa(dp133
VteamId
p134
I200
sVchampionId
p135
I96
sVsummonerId
p136
I33121991
sa(dp137
VteamId
p138
I100
sVchampionId
p139
I92
sVsummonerId
p140
I47162755
sa(dp141
VteamId
p142
I100
sVchampionId
p143
I55
sVsummonerId
p144
I59715181
sa(dp145
VteamId
p146
I100
sVchampionId
p147
I96
sVsummonerId
p148
I50107498
sasg90
I108057
sg91
I7616
sg92
VMATCHED_GAME
p149
sg94
I1033
sg95
I10822
sg96
I1
sg97
I8039
sg98
I1
sg99
I200
sg100
I2
sg101
I19446
sg102
I1
sg103
I1403
sg104
I15658
sbag1
(g2
g3
Ntp150
Rp151
(dp152
g7
I1459
sg8
I00
sg9
I4
sg10
I11
sg11
I49760
sg12
I2141
sg13
I3
sg14
VNORMAL
p153
sg16
I100
sg17
I1
sg19
I51
sg20
I1472
sg22
I334
sg23
I11
sg24
I5568
sg111
I1
sg26
I98
sg27
I3047
sg28
I1028
sg29
I1447277056178
sg30
I2031
sg31
VCLASSIC
p154
sg33
I00
sg43
I1048
sg35
I3340
sg37
I31
sg38
I1
sg39
I2006545552
sg41
I148
sg42
I12
sg44
I30
sg45
I2
sg46
I31
sg48
I4
sg49
I11
sg50
I4575
sg51
I572
sg52
(lp155
(dp156
VteamId
p157
I100
sVchampionId
p158
I157
sVsummonerId
p159
I22980754
sa(dp160
VteamId
p161
I200
sVchampionId
p162
I238
sVsummonerId
p163
I52840073
sa(dp164
VteamId
p165
I200
sVchampionId
p166
I89
sVsummonerId
p167
I30937471
sa(dp168
VteamId
p169
I100
sVchampionId
p170
I154
sVsummonerId
p171
I22281316
sa(dp172
VteamId
p173
I100
sVchampionId
p174
I22
sVsummonerId
p175
I19509562
sa(dp176
VteamId
p177
I100
sVchampionId
p178
I412
sVsummonerId
p179
I34516002
sa(dp180
VteamId
p181
I200
sVchampionId
p182
I92
sVsummonerId
p183
I56436246
sa(dp184
VteamId
p185
I200
sVchampionId
p186
I104
sVsummonerId
p187
I58142395
sa(dp188
VteamId
p189
I200
sVchampionId
p190
I23
sVsummonerId
p191
I31073881
sasg90
I26084
sg91
I2548
sg92
VMATCHED_GAME
p192
sg94
I1029
sg95
I5522
sg97
I3761
sg98
I1
sg99
I100
sg100
I7
sg101
I17423
sg21
I18107
sg103
I1401
sg104
I15802
sbag1
(g2
g3
Ntp193
Rp194
(dp195
g7
I2259
sg8
I01
sg9
I9
sg10
I11
sg11
I167955
sg12
I1868
sg13
I3
sg14
VNORMAL
p196
sg16
I100
sg17
I1
sg18
I2
sg19
I253
sg20
I13142
sg21
I5498
sg22
I524
sg23
I17
sg24
I11351
sg111
I2
sg26
I80
sg27
I1309
sg28
I3071
sg29
I1447280436313
sg30
I3134
sg31
VCLASSIC
p197
sg33
I00
sg34
I3155
sg35
I3340
sg110
I1
sg25
I26
sg37
I33
sg38
I6
sg39
I2006573646
sg40
I1045
sg41
I768
sg42
I91
sg43
I11407
sg44
I30
sg45
I9
sg46
I59
sg48
I4
sg49
I11
sg50
I12700
sg51
I1588
sg52
(lp198
(dp199
VteamId
p200
I100
sVchampionId
p201
I81
sVsummonerId
p202
I22980754
sa(dp203
VteamId
p204
I200
sVchampionId
p205
I81
sVsummonerId
p206
I39592874
sa(dp207
VteamId
p208
I200
sVchampionId
p209
I98
sVsummonerId
p210
I38591140
sa(dp211
VteamId
p212
I100
sVchampionId
p213
I114
sVsummonerId
p214
I22193810
sa(dp215
VteamId
p216
I100
sVchampionId
p217
I58
sVsummonerId
p218
I34516002
sa(dp219
VteamId
p220
I100
sVchampionId
p221
I89
sVsummonerId
p222
I19509562
sa(dp223
VteamId
p224
I200
sVchampionId
p225
I38
sVsummonerId
p226
I28669579
sa(dp227
VteamId
p228
I200
sVchampionId
p229
I77
sVsummonerId
p230
I56438019
sa(dp231
VteamId
p232
I200
sVchampionId
p233
I12
sVsummonerId
p234
I55500699
sasg90
I151105
sg91
I4949
sg92
VMATCHED_GAME
p235
sg94
I3033
sg95
I13546
sg96
I1
sg97
I14863
sg98
I1
sg99
I100
sg100
I9
sg101
I27838
sg102
I1
sg103
I1400
sg104
I13927
sbag1
(g2
g3
Ntp236
Rp237
(dp238
g7
I3789
sg8
I00
sg9
I15
sg10
I11
sg11
I269571
sg12
I1825
sg13
I3
sg14
VNORMAL
p239
sg16
I100
sg17
I2
sg18
I8
sg19
I94
sg20
I9662
sg21
I7913
sg22
I712
sg23
I18
sg24
I17634
sg25
I5
sg26
I80
sg27
I3142
sg28
I1309
sg29
I1447284701921
sg30
I3033
sg31
VCLASSIC
p240
sg33
I00
sg34
I3071
sg35
I3340
sg110
I1
sg37
I47
sg38
I12
sg36
I1
sg39
I2006620427
sg40
I1017
sg41
I2985
sg42
I167
sg43
I19640
sg44
I30
sg45
I9
sg46
I52
sg48
I4
sg49
I11
sg50
I22450
sg51
I1564
sg52
(lp241
(dp242
VteamId
p243
I200
sVchampionId
p244
I157
sVsummonerId
p245
I55331803
sa(dp246
VteamId
p247
I100
sVchampionId
p248
I51
sVsummonerId
p249
I22980754
sa(dp250
VteamId
p251
I200
sVchampionId
p252
I99
sVsummonerId
p253
I59270811
sa(dp254
VteamId
p255
I100
sVchampionId
p256
I101
sVsummonerId
p257
I22193810
sa(dp258
VteamId
p259
I100
sVchampionId
p260
I53
sVsummonerId
p261
I19509562
sa(dp262
VteamId
p263
I100
sVchampionId
p264
I114
sVsummonerId
p265
I34516002
sa(dp266
VteamId
p267
I200
sVchampionId
p268
I104
sVsummonerId
p269
I24579380
sa(dp270
VteamId
p271
I200
sVchampionId
p272
I75
sVsummonerId
p273
I36807944
sa(dp274
VteamId
p275
I200
sVchampionId
p276
I96
sVsummonerId
p277
I23092968
sasg90
I244024
sg91
I9175
sg92
VMATCHED_GAME
p278
sg94
I3742
sg95
I22214
sg97
I23030
sg98
I1
sg99
I100
sg100
I11
sg101
I50776
sg102
I2
sg103
I3026
sg104
I38129
sbag1
(g2
g3
Ntp279
Rp280
(dp281
g7
I2385
sg8
I00
sg9
I10
sg10
I11
sg11
I85248
sg12
I22385
sg13
I2
sg14
VNORMAL
p282
sg16
I100
sg17
I1
sg19
I71
sg20
I7402
sg23
I16
sg24
I534
sg111
I1
sg26
I76
sg27
I1314
sg28
I1058
sg29
I1447460213051
sg30
I3165
sg31
VCLASSIC
p283
sg33
I00
sg43
I745
sg35
I3340
sg110
I1
sg38
I4
sg39
I2008584745
sg41
I3201
sg42
I89
sg44
I30
sg45
I8
sg47
I4
sg48
I4
sg49
I14
sg50
I9560
sg51
I534
sg52
(lp284
(dp285
VteamId
p286
I200
sVchampionId
p287
I12
sVsummonerId
p288
I62695246
sa(dp289
VteamId
p290
I200
sVchampionId
p291
I107
sVsummonerId
p292
I66665233
sa(dp293
VteamId
p294
I100
sVchampionId
p295
I77
sVsummonerId
p296
I28706378
sa(dp297
VteamId
p298
I100
sVchampionId
p299
I67
sVsummonerId
p300
I53014337
sa(dp301
VteamId
p302
I100
sVchampionId
p303
I104
sVsummonerId
p304
I23560145
sa(dp305
VteamId
p306
I100
sVchampionId
p307
I412
sVsummonerId
p308
I34516002
sa(dp309
VteamId
p310
I200
sVchampionId
p311
I64
sVsummonerId
p312
I54700134
sa(dp313
VteamId
p314
I200
sVchampionId
p315
I222
sVsummonerId
p316
I55327257
sa(dp317
VteamId
p318
I200
sVchampionId
p319
I103
sVsummonerId
p320
I60622015
sasg90
I19191
sg91
I1448
sg92
VMATCHED_GAME
p321
sg94
I1052
sg95
I11702
sg96
I1
sg97
I23664
sg98
I2
sg99
I100
sg100
I14
sg101
I28238
sg21
I65523
sg103
I3285
sg104
I17634
sbag1
(g2
g3
Ntp322
Rp323
(dp324
g7
I2591
sg8
I00
sg9
I16
sg10
I11
sg11
I138756
sg12
I2372
sg13
I3
sg14
VNORMAL
p325
sg16
I200
sg17
I1
sg18
I2
sg19
I77
sg20
I9620
sg21
I10162
sg22
I574
sg23
I16
sg24
I11599
sg111
I7
sg26
I80
sg27
I2043
sg28
I3156
sg29
I1447470516336
sg30
I3071
sg31
VCLASSIC
p326
sg33
I00
sg34
I1329
sg35
I3340
sg110
I2
sg25
I3
sg37
I59
sg38
I4
sg39
I2008963893
sg40
I954
sg41
I408
sg42
I57
sg43
I8654
sg44
I30
sg45
I5
sg46
I62
sg48
I4
sg49
I11
sg50
I11725
sg51
I1839
sg52
(lp327
(dp328
VteamId
p329
I200
sVchampionId
p330
I79
sVsummonerId
p331
I22980754
sa(dp332
VteamId
p333
I200
sVchampionId
p334
I67
sVsummonerId
p335
I46327125
sa(dp336
VteamId
p337
I200
sVchampionId
p338
I150
sVsummonerId
p339
I34516002
sa(dp340
VteamId
p341
I100
sVchampionId
p342
I16
sVsummonerId
p343
I47909530
sa(dp344
VteamId
p345
I100
sVchampionId
p346
I429
sVsummonerId
p347
I47711828
sa(dp348
VteamId
p349
I100
sVchampionId
p350
I7
sVsummonerId
p351
I46069060
sa(dp352
VteamId
p353
I200
sVchampionId
p354
I37
sVsummonerId
p355
I60101436
sa(dp356
VteamId
p357
I100
sVchampionId
p358
I120
sVsummonerId
p359
I51118622
sa(dp360
VteamId
p361
I100
sVchampionId
p362
I54
sVsummonerId
p363
I59974393
sasg90
I116993
sg91
I6056
sg92
VMATCHED_GAME
p364
sg94
I1031
sg95
I12455
sg97
I12866
sg98
I1
sg99
I200
sg100
I8
sg101
I34191
sg102
I1
sg103
I1400
sg104
I24162
sbag1
(g2
g3
Ntp365
Rp366
(dp367
g7
I1987
sg8
I00
sg9
I9
sg10
I11
sg11
I90795
sg12
I2312
sg13
I3
sg14
VNORMAL
p368
sg16
I200
sg17
I1
sg19
I62
sg20
I5418
sg22
I403
sg23
I14
sg24
I7704
sg25
I6
sg26
I80
sg27
I3009
sg28
I3071
sg29
I1447472829669
sg30
I2031
sg31
VCLASSIC
p369
sg33
I00
sg34
I1011
sg35
I3340
sg110
I1
sg111
I1
sg37
I40
sg38
I3
sg39
I2009060100
sg40
I485
sg41
I204
sg42
I19
sg43
I5376
sg44
I30
sg45
I7
sg46
I46
sg48
I4
sg49
I11
sg50
I8950
sg51
I904
sg52
(lp370
(dp371
VteamId
p372
I200
sVchampionId
p373
I18
sVsummonerId
p374
I22980754
sa(dp375
VteamId
p376
I100
sVchampionId
p377
I421
sVsummonerId
p378
I40061748
sa(dp379
VteamId
p380
I200
sVchampionId
p381
I150
sVsummonerId
p382
I25181008
sa(dp383
VteamId
p384
I100
sVchampionId
p385
I126
sVsummonerId
p386
I51153853
sa(dp387
VteamId
p388
I200
sVchampionId
p389
I58
sVsummonerId
p390
I34516002
sa(dp391
VteamId
p392
I100
sVchampionId
p393
I157
sVsummonerId
p394
I64420006
sa(dp395
VteamId
p396
I200
sVchampionId
p397
I45
sVsummonerId
p398
I55318668
sa(dp399
VteamId
p400
I100
sVchampionId
p401
I51
sVsummonerId
p402
I22305478
sa(dp403
VteamId
p404
I100
sVchampionId
p405
I37
sVsummonerId
p406
I51691719
sasg90
I72907
sg91
I4733
sg92
VMATCHED_GAME
p407
sg94
I1031
sg95
I9650
sg96
I1
sg97
I8592
sg98
I1
sg99
I200
sg100
I6
sg101
I26543
sg21
I10184
sg103
I1400
sg104
I20921
sbag1
(g2
g3
Ntp408
Rp409
(dp410
g7
I2595
sg8
I00
sg9
I11
sg10
I11
sg11
I169532
sg12
I1813
sg13
I4
sg14
VNORMAL
p411
sg16
I200
sg17
I1
sg18
I2
sg19
I77
sg20
I13563
sg21
I29006
sg22
I51
sg23
I16
sg24
I511
sg111
I1
sg26
I236
sg27
I1304
sg28
I3057
sg29
I1447476911059
sg30
I3508
sg31
VCLASSIC
p412
sg33
I00
sg34
I3086
sg35
I3340
sg110
I1
sg25
I4
sg37
I2
sg38
I3
sg39
I2009107944
sg40
I534
sg41
I999
sg42
I226
sg43
I19332
sg44
I30
sg45
I7
sg46
I6
sg47
I3
sg48
I4
sg49
I7
sg50
I13725
sg51
I363
sg52
(lp413
(dp414
VteamId
p415
I100
sVchampionId
p416
I236
sVsummonerId
p417
I61193981
sa(dp418
VteamId
p419
I200
sVchampionId
p420
I81
sVsummonerId
p421
I22980754
sa(dp422
VteamId
p423
I200
sVchampionId
p424
I412
sVsummonerId
p425
I34516002
sa(dp426
VteamId
p427
I200
sVchampionId
p428
I117
sVsummonerId
p429
I37359011
sa(dp430
VteamId
p431
I200
sVchampionId
p432
I104
sVsummonerId
p433
I19509562
sa(dp434
VteamId
p435
I100
sVchampionId
p436
I103
sVsummonerId
p437
I42189883
sa(dp438
VteamId
p439
I100
sVchampionId
p440
I107
sVsummonerId
p441
I50696767
sa(dp442
VteamId
p443
I100
sVchampionId
p444
I53
sVsummonerId
p445
I59905042
sa(dp446
VteamId
p447
I100
sVchampionId
p448
I75
sVsummonerId
p449
I46065862
sasg90
I140013
sg91
I2223
sg92
VMATCHED_GAME
p450
sg94
I3087
sg95
I13651
sg96
I2
sg97
I21509
sg98
I3
sg99
I200
sg100
I7
sg101
I27052
sg102
I1
sg103
I3036
sg104
I12489
sbag1
(g2
g3
Ntp451
Rp452
(dp453
g7
I2804
sg21
I31046
sg8
I01
sg9
I16
sg10
I11
sg11
I278957
sg12
I3690
sg13
I3
sg14
VNORMAL
p454
sg16
I100
sg17
I1
sg18
I2
sg19
I274
sg20
I10437
sS'barracksKilled'
p455
I1
sg22
I514
sg23
I18
sg24
I20796
sg111
I3
sg26
I56
sg27
I3074
sg28
I3742
sg29
I1447480101513
sg30
I3065
sg31
VCLASSIC
p456
sg33
I00
sg34
I1319
sg35
I3340
sg110
I3
sg25
I14
sg37
I64
sg38
I3
sg39
I2009171588
sg41
I2632
sg42
I163
sg43
I10751
sg44
I30
sg45
I13
sg46
I78
sg48
I4
sg49
I11
sg50
I14625
sg51
I1388
sg52
(lp457
(dp458
VteamId
p459
I100
sVchampionId
p460
I64
sVsummonerId
p461
I22980754
sa(dp462
VteamId
p463
I200
sVchampionId
p464
I40
sVsummonerId
p465
I50857944
sa(dp466
VteamId
p467
I200
sVchampionId
p468
I64
sVsummonerId
p469
I49220444
sa(dp470
VteamId
p471
I100
sVchampionId
p472
I99
sVsummonerId
p473
I37359011
sa(dp474
VteamId
p475
I100
sVchampionId
p476
I150
sVsummonerId
p477
I34516002
sa(dp478
VteamId
p479
I100
sVchampionId
p480
I412
sVsummonerId
p481
I19509562
sa(dp482
VteamId
p483
I200
sVchampionId
p484
I120
sVsummonerId
p485
I31845282
sa(dp486
VteamId
p487
I200
sVchampionId
p488
I3
sVsummonerId
p489
I46579893
sa(dp490
VteamId
p491
I200
sVchampionId
p492
I67
sVsummonerId
p493
I32611881
sasg90
I227113
sg91
I15868
sg92
VMATCHED_GAME
p494
sg94
I1037
sg95
I16728
sg96
I1
sg97
I15829
sg98
I1
sg99
I100
sg100
I2
sg101
I46240
sg102
I1
sg103
I1401
sg104
I33170
sba.