(lp0
ccopy_reg
_reconstructor
p1
(cRiotAPI
GameData
p2
c__builtin__
object
p3
Ntp4
Rp5
(dp6
S'timePlayed'
p7
I2116
sS'win'
p8
I00
sS'wardPlaced'
p9
I20
sS'mapId'
p10
I11
sS'totalDamageDealt'
p11
I44883
sS'magicDamageDealtToChampions'
p12
I8012
sS'playerPosition'
p13
I4
sS'subType'
p14
VRANKED_SOLO_5x5
p15
sS'teamId'
p16
I200
sS'largestMultiKill'
p17
I1
sS'ipEarned'
p18
I65
sS'magicDamageTaken'
p19
I7067
sS'totalTimeCrowdControlDealt'
p20
I257
sS'champlevel'
p21
I14
sS'trueDamageDealtPlayer'
p22
I12
sS'wardKilled'
p23
I3
sS'championId'
p24
I16
sS'item2'
p25
I2049
sS'item3'
p26
I3050
sS'createDate'
p27
I1447270036533
sS'item1'
p28
I3069
sS'gameMode'
p29
VCLASSIC
p30
sS'invalid'
p31
I00
sS'item5'
p32
I3114
sS'item6'
p33
I3341
sS'visionWardsBought'
p34
I1
sS'championsKilled'
p35
I1
sS'gameId'
p36
I2006492117
sS'largestCriticalStrike'
p37
I394
sS'trueDamageTaken'
p38
I380
sS'minionsKilled'
p39
I40
sS'physicalDamageDealtToChampions'
p40
I691
sS'sumlevel'
p41
I30
sS'assists'
p42
I6
sS'playerRole'
p43
I2
sS'spell1'
p44
I3
sS'spell2'
p45
I4
sS'goldSpent'
p46
I7775
sS'trueDamageDealtToChampions'
p47
I12
sS'fellowPlayers'
p48
(lp49
(dp50
VteamId
p51
I200
sVchampionId
p52
I92
sVsummonerId
p53
I47532464
sa(dp54
VteamId
p55
I100
sVchampionId
p56
I64
sVsummonerId
p57
I27805632
sa(dp58
VteamId
p59
I200
sVchampionId
p60
I61
sVsummonerId
p61
I38827142
sa(dp62
VteamId
p63
I200
sVchampionId
p64
I81
sVsummonerId
p65
I31660128
sa(dp66
VteamId
p67
I200
sVchampionId
p68
I111
sVsummonerId
p69
I20765610
sa(dp70
VteamId
p71
I100
sVchampionId
p72
I222
sVsummonerId
p73
I45550241
sa(dp74
VteamId
p75
I100
sVchampionId
p76
I412
sVsummonerId
p77
I23148816
sa(dp78
VteamId
p79
I100
sVchampionId
p80
I68
sVsummonerId
p81
I30988875
sa(dp82
VteamId
p83
I100
sVchampionId
p84
I7
sVsummonerId
p85
I39614117
sasS'physicalDamageDealtPlayer'
p86
I5158
sS'totalHeal'
p87
I11565
sS'gameType'
p88
VMATCHED_GAME
p89
sS'item4'
p90
I3113
sS'goldEarned'
p91
I9273
sS'totalDamageDealtToChampions'
p92
I8716
sS'totalUnitsHealed'
p93
I5
sS'team'
p94
I200
sS'numDeaths'
p95
I10
sS'totalDamageTaken'
p96
I20223
sS'magicDamageDealtPlayer'
p97
I39712
sS'item0'
p98
I3158
sS'physicalDamageTaken'
p99
I12775
sbag1
(g2
g3
Ntp100
Rp101
(dp102
g7
I1668
sg8
I01
sg9
I10
sg10
I11
sg11
I67371
sg12
I10424
sg13
I4
sg14
VNORMAL
p103
sg16
I200
sg17
I1
sS'largestKillingSpree'
p104
I2
sg18
I80
sg19
I2853
sg97
I59620
sg20
I159
sg21
I14
sS'neutralMinionsKilledEnemyJungle'
p105
I2
sg24
I25
sg25
I3092
sg26
I1029
sg27
I1447275266316
sg28
I3020
sg29
VCLASSIC
p106
sg31
I00
sg40
I767
sg33
I3340
sS'neutralMinionsKilledYourJungle'
p107
I2
sg35
I4
sg36
I2006531971
sg38
I916
sg39
I97
sg41
I30
sg42
I8
sS'neutralMinionsKilled'
p108
I4
sg43
I3
sg44
I3
sg45
I4
sg46
I7985
sg48
(lp109
(dp110
VteamId
p111
I100
sVchampionId
p112
I412
sVsummonerId
p113
I40829054
sa(dp114
VteamId
p115
I200
sVchampionId
p116
I157
sVsummonerId
p117
I22980754
sa(dp118
VteamId
p119
I200
sVchampionId
p120
I56
sVsummonerId
p121
I47532464
sa(dp122
VteamId
p123
I200
sVchampionId
p124
I54
sVsummonerId
p125
I19509562
sa(dp126
VteamId
p127
I100
sVchampionId
p128
I24
sVsummonerId
p129
I61631029
sa(dp130
VteamId
p131
I200
sVchampionId
p132
I96
sVsummonerId
p133
I33121991
sa(dp134
VteamId
p135
I100
sVchampionId
p136
I92
sVsummonerId
p137
I47162755
sa(dp138
VteamId
p139
I100
sVchampionId
p140
I55
sVsummonerId
p141
I59715181
sa(dp142
VteamId
p143
I100
sVchampionId
p144
I96
sVsummonerId
p145
I50107498
sasg86
I7751
sg87
I252
sg88
VMATCHED_GAME
p146
sg90
I1052
sg91
I10542
sg92
I11192
sg93
I1
sg94
I200
sg95
I2
sg96
I8567
sS'killingSprees'
p147
I2
sg98
I3089
sg99
I4798
sbag1
(g2
g3
Ntp148
Rp149
(dp150
g7
I1459
sg8
I00
sg9
I13
sg10
I11
sg11
I15399
sg12
I4665
sg13
I4
sg14
VNORMAL
p151
sg16
I100
sg17
I1
sg104
I2
sg18
I51
sg19
I1678
sg97
I11411
sg20
I110
sg21
I11
sg24
I412
sg25
I2049
sg26
I3801
sg27
I1447277056178
sg28
I3401
sg29
VCLASSIC
p152
sg31
I00
sg40
I818
sg33
I3341
sg35
I3
sg36
I2006545552
sg38
I216
sg39
I29
sg41
I30
sg42
I1
sg43
I2
sg44
I3
sg45
I4
sg46
I5000
sg48
(lp153
(dp154
VteamId
p155
I100
sVchampionId
p156
I157
sVsummonerId
p157
I22980754
sa(dp158
VteamId
p159
I200
sVchampionId
p160
I238
sVsummonerId
p161
I52840073
sa(dp162
VteamId
p163
I100
sVchampionId
p164
I98
sVsummonerId
p165
I47532464
sa(dp166
VteamId
p167
I200
sVchampionId
p168
I89
sVsummonerId
p169
I30937471
sa(dp170
VteamId
p171
I100
sVchampionId
p172
I154
sVsummonerId
p173
I22281316
sa(dp174
VteamId
p175
I100
sVchampionId
p176
I22
sVsummonerId
p177
I19509562
sa(dp178
VteamId
p179
I200
sVchampionId
p180
I92
sVsummonerId
p181
I56436246
sa(dp182
VteamId
p183
I200
sVchampionId
p184
I104
sVsummonerId
p185
I58142395
sa(dp186
VteamId
p187
I200
sVchampionId
p188
I23
sVsummonerId
p189
I31073881
sasg86
I3988
sg87
I1024
sg88
VMATCHED_GAME
p190
sg90
I1028
sg91
I5532
sg92
I5484
sg93
I4
sg94
I100
sg95
I3
sg96
I14628
sg147
I1
sg98
I3117
sg99
I12734
sbag1
(g2
g3
Ntp191
Rp192
(dp193
g7
I2259
sg8
I01
sg9
I16
sg10
I11
sg11
I211757
sg12
I4281
sg13
I3
sg14
VNORMAL
p194
sg16
I100
sg17
I1
sg104
I3
sg18
I253
sg19
I20609
sS'barracksKilled'
p195
I1
sg20
I55
sg21
I18
sg22
I239
sg105
I4
sg24
I58
sg25
I3074
sg26
I3047
sg27
I1447280436313
sg28
I3071
sg29
VCLASSIC
p196
sg31
I00
sg32
I3065
sg33
I3340
sg23
I2
sg35
I4
sg36
I2006573646
sg38
I1484
sg39
I272
sg40
I26373
sg41
I30
sg42
I8
sg108
I4
sg44
I12
sg45
I4
sg46
I14300
sg47
I239
sg48
(lp197
(dp198
VteamId
p199
I100
sVchampionId
p200
I81
sVsummonerId
p201
I22980754
sa(dp202
VteamId
p203
I100
sVchampionId
p204
I80
sVsummonerId
p205
I47532464
sa(dp206
VteamId
p207
I200
sVchampionId
p208
I81
sVsummonerId
p209
I39592874
sa(dp210
VteamId
p211
I200
sVchampionId
p212
I98
sVsummonerId
p213
I38591140
sa(dp214
VteamId
p215
I100
sVchampionId
p216
I114
sVsummonerId
p217
I22193810
sa(dp218
VteamId
p219
I100
sVchampionId
p220
I89
sVsummonerId
p221
I19509562
sa(dp222
VteamId
p223
I200
sVchampionId
p224
I38
sVsummonerId
p225
I28669579
sa(dp226
VteamId
p227
I200
sVchampionId
p228
I77
sVsummonerId
p229
I56438019
sa(dp230
VteamId
p231
I200
sVchampionId
p232
I12
sVsummonerId
p233
I55500699
sasg86
I199861
sg87
I8089
sg88
VMATCHED_GAME
p234
sg90
I3742
sg91
I14645
sS'turretsKilled'
p235
I2
sg92
I30895
sg93
I1
sg94
I100
sg95
I4
sg96
I41642
sg147
I1
sg97
I11656
sg99
I19548
sbag1
(g2
g3
Ntp236
Rp237
(dp238
g7
I3789
sg8
I00
sg9
I22
sg10
I11
sg11
I388238
sg12
I1095
sg13
I1
sg14
VNORMAL
p239
sg16
I100
sg17
I1
sg18
I94
sg19
I5869
sg20
I117
sg21
I18
sg22
I4276
sg23
I3
sg24
I114
sg25
I3074
sg26
I3071
sg27
I1447284701921
sg28
I1324
sg29
VCLASSIC
p240
sg31
I00
sg32
I3156
sg33
I3340
sg107
I34
sg35
I3
sg36
I2006620427
sg37
I970
sg38
I2322
sg39
I360
sg40
I8722
sg41
I30
sg42
I5
sg108
I34
sg43
I4
sg44
I12
sg45
I4
sg46
I20200
sg47
I4180
sg48
(lp241
(dp242
VteamId
p243
I200
sVchampionId
p244
I157
sVsummonerId
p245
I55331803
sa(dp246
VteamId
p247
I100
sVchampionId
p248
I51
sVsummonerId
p249
I22980754
sa(dp250
VteamId
p251
I100
sVchampionId
p252
I80
sVsummonerId
p253
I47532464
sa(dp254
VteamId
p255
I200
sVchampionId
p256
I99
sVsummonerId
p257
I59270811
sa(dp258
VteamId
p259
I100
sVchampionId
p260
I101
sVsummonerId
p261
I22193810
sa(dp262
VteamId
p263
I100
sVchampionId
p264
I53
sVsummonerId
p265
I19509562
sa(dp266
VteamId
p267
I200
sVchampionId
p268
I104
sVsummonerId
p269
I24579380
sa(dp270
VteamId
p271
I200
sVchampionId
p272
I75
sVsummonerId
p273
I36807944
sa(dp274
VteamId
p275
I200
sVchampionId
p276
I96
sVsummonerId
p277
I23092968
sasg86
I364447
sg87
I12017
sg88
VMATCHED_GAME
p278
sg90
I3026
sg91
I22408
sg235
I1
sg92
I13999
sg93
I4
sg94
I100
sg95
I11
sg96
I47914
sg97
I19514
sg98
I3812
sg99
I39722
sbag1
(g2
g3
Ntp279
Rp280
(dp281
g7
I2385
sg8
I00
sg9
I26
sg10
I11
sg11
I26668
sg12
I11974
sg13
I4
sg14
VNORMAL
p282
sg16
I100
sg17
I1
sg104
I2
sg18
I71
sg19
I15683
sg97
I22304
sg20
I915
sg21
I16
sg23
I2
sg24
I412
sg25
I2049
sg26
I3110
sg27
I1447460213053
sg28
I3117
sg29
VCLASSIC
p283
sg31
I00
sg32
I3801
sg33
I3341
sg34
I1
sg35
I5
sg36
I2008584745
sg38
I2298
sg39
I46
sg40
I677
sg41
I30
sg42
I12
sg43
I2
sg44
I3
sg45
I4
sg46
I10075
sg48
(lp284
(dp285
VteamId
p286
I100
sVchampionId
p287
I76
sVsummonerId
p288
I47532464
sa(dp289
VteamId
p290
I200
sVchampionId
p291
I12
sVsummonerId
p292
I62695246
sa(dp293
VteamId
p294
I200
sVchampionId
p295
I107
sVsummonerId
p296
I66665233
sa(dp297
VteamId
p298
I100
sVchampionId
p299
I77
sVsummonerId
p300
I28706378
sa(dp301
VteamId
p302
I100
sVchampionId
p303
I67
sVsummonerId
p304
I53014337
sa(dp305
VteamId
p306
I100
sVchampionId
p307
I104
sVsummonerId
p308
I23560145
sa(dp309
VteamId
p310
I200
sVchampionId
p311
I64
sVsummonerId
p312
I54700134
sa(dp313
VteamId
p314
I200
sVchampionId
p315
I222
sVsummonerId
p316
I55327257
sa(dp317
VteamId
p318
I200
sVchampionId
p319
I103
sVsummonerId
p320
I60622015
sasg86
I4363
sg87
I2660
sg88
VMATCHED_GAME
p321
sg90
I3800
sg91
I11673
sg235
I1
sg92
I12651
sg93
I4
sg94
I100
sg95
I10
sg96
I38435
sg147
I2
sg98
I3401
sg99
I20452
sbag1
(g2
g3
Ntp322
Rp323
(dp324
g7
I2591
sg8
I00
sg9
I17
sg10
I11
sg11
I207120
sg12
I5031
sg13
I1
sg14
VNORMAL
p325
sg16
I200
sg17
I1
sg104
I2
sg18
I77
sg19
I12648
sg97
I24008
sg20
I1319
sg21
I18
sg105
I1
sg24
I150
sg25
I3143
sg26
I3111
sg27
I1447470516337
sg28
I3071
sg29
VCLASSIC
p326
sg31
I00
sg32
I3751
sg33
I3340
sg34
I1
sg23
I4
sg107
I3
sg35
I4
sg36
I2008963893
sg37
I670
sg38
I1035
sg39
I264
sg40
I16271
sg41
I30
sg42
I4
sg108
I4
sg43
I4
sg44
I12
sg45
I4
sg46
I13325
sg48
(lp327
(dp328
VteamId
p329
I200
sVchampionId
p330
I79
sVsummonerId
p331
I22980754
sa(dp332
VteamId
p333
I200
sVchampionId
p334
I80
sVsummonerId
p335
I47532464
sa(dp336
VteamId
p337
I200
sVchampionId
p338
I67
sVsummonerId
p339
I46327125
sa(dp340
VteamId
p341
I100
sVchampionId
p342
I16
sVsummonerId
p343
I47909530
sa(dp344
VteamId
p345
I100
sVchampionId
p346
I429
sVsummonerId
p347
I47711828
sa(dp348
VteamId
p349
I100
sVchampionId
p350
I7
sVsummonerId
p351
I46069060
sa(dp352
VteamId
p353
I200
sVchampionId
p354
I37
sVsummonerId
p355
I60101436
sa(dp356
VteamId
p357
I100
sVchampionId
p358
I120
sVsummonerId
p359
I51118622
sa(dp360
VteamId
p361
I100
sVchampionId
p362
I54
sVsummonerId
p363
I59974393
sasg86
I183112
sg88
VMATCHED_GAME
p364
sg90
I1031
sg91
I14432
sg235
I1
sg92
I21302
sg94
I200
sg95
I3
sg96
I26670
sg147
I1
sg98
I3156
sg99
I12986
sbag1
(g2
g3
Ntp365
Rp366
(dp367
g7
I1987
sg8
I00
sg9
I14
sg10
I11
sg11
I166199
sg12
I674
sg13
I1
sg14
VNORMAL
p368
sg16
I200
sg17
I2
sg104
I6
sg18
I62
sg19
I8907
sg97
I2463
sg20
I51
sg21
I17
sg22
I2373
sg105
I3
sg24
I58
sg25
I3074
sg26
I3047
sg27
I1447472829670
sg28
I3071
sg29
VCLASSIC
p369
sg31
I00
sg32
I3211
sg33
I3340
sg34
I1
sg23
I1
sg107
I3
sg35
I8
sg36
I2009060100
sS'doubleKills'
p370
I1
sg38
I456
sg39
I233
sg40
I9963
sg41
I30
sg42
I3
sg108
I6
sg43
I4
sg44
I12
sg45
I4
sg46
I12575
sg47
I48
sg48
(lp371
(dp372
VteamId
p373
I200
sVchampionId
p374
I18
sVsummonerId
p375
I22980754
sa(dp376
VteamId
p377
I100
sVchampionId
p378
I421
sVsummonerId
p379
I40061748
sa(dp380
VteamId
p381
I200
sVchampionId
p382
I80
sVsummonerId
p383
I47532464
sa(dp384
VteamId
p385
I200
sVchampionId
p386
I150
sVsummonerId
p387
I25181008
sa(dp388
VteamId
p389
I100
sVchampionId
p390
I126
sVsummonerId
p391
I51153853
sa(dp392
VteamId
p393
I100
sVchampionId
p394
I157
sVsummonerId
p395
I64420006
sa(dp396
VteamId
p397
I200
sVchampionId
p398
I45
sVsummonerId
p399
I55318668
sa(dp400
VteamId
p401
I100
sVchampionId
p402
I51
sVsummonerId
p403
I22305478
sa(dp404
VteamId
p405
I100
sVchampionId
p406
I37
sVsummonerId
p407
I51691719
sasg86
I161363
sg87
I5036
sg88
VMATCHED_GAME
p408
sg90
I3053
sg91
I13226
sg235
I1
sg92
I10686
sg93
I1
sg94
I200
sg95
I4
sg96
I31921
sg147
I2
sg98
I1055
sg99
I22557
sbag1
(g2
g3
Ntp409
Rp410
(dp411
g7
I2595
sg8
I00
sg9
I27
sg10
I11
sg11
I34301
sg12
I7228
sg13
I4
sg14
VNORMAL
p412
sg16
I200
sg17
I1
sg104
I2
sg18
I77
sg19
I8418
sg97
I23375
sg20
I143
sg21
I16
sg22
I125
sg23
I7
sg24
I412
sg25
I2049
sg26
I3800
sg27
I1447476911060
sg28
I3190
sg29
VCLASSIC
p413
sg31
I00
sg32
I3082
sg33
I3341
sg34
I1
sg107
I2
sg35
I3
sg36
I2009107944
sg38
I1946
sg39
I87
sg40
I1394
sg41
I30
sg42
I10
sg108
I2
sg43
I2
sg44
I3
sg45
I4
sg46
I10225
sg47
I41
sg48
(lp414
(dp415
VteamId
p416
I100
sVchampionId
p417
I236
sVsummonerId
p418
I61193981
sa(dp419
VteamId
p420
I200
sVchampionId
p421
I81
sVsummonerId
p422
I22980754
sa(dp423
VteamId
p424
I200
sVchampionId
p425
I236
sVsummonerId
p426
I47532464
sa(dp427
VteamId
p428
I200
sVchampionId
p429
I117
sVsummonerId
p430
I37359011
sa(dp431
VteamId
p432
I200
sVchampionId
p433
I104
sVsummonerId
p434
I19509562
sa(dp435
VteamId
p436
I100
sVchampionId
p437
I103
sVsummonerId
p438
I42189883
sa(dp439
VteamId
p440
I100
sVchampionId
p441
I107
sVsummonerId
p442
I50696767
sa(dp443
VteamId
p444
I100
sVchampionId
p445
I53
sVsummonerId
p446
I59905042
sa(dp447
VteamId
p448
I100
sVchampionId
p449
I75
sVsummonerId
p450
I46065862
sasg86
I10800
sg87
I3163
sg88
VMATCHED_GAME
p451
sg90
I3117
sg91
I11515
sg92
I8664
sg93
I5
sg94
I200
sg95
I3
sg96
I23232
sg147
I1
sg98
I3401
sg99
I12867
sbag1
(g2
g3
Ntp452
Rp453
(dp454
g7
I2804
sg8
I01
sg9
I19
sg10
I11
sg11
I222753
sg12
I5750
sg13
I1
sg14
VNORMAL
p455
sg16
I100
sg17
I2
sg104
I5
sg18
I274
sg19
I7946
sg97
I36667
sg20
I1309
sg21
I18
sg22
I1816
sg23
I1
sg24
I150
sg25
I3143
sg26
I3156
sg27
I1447480101514
sg28
I3071
sg29
VCLASSIC
p456
sg31
I00
sg32
I3102
sg33
I3340
sg34
I1
sg105
I2
sg107
I7
sg35
I12
sg370
I1
sg36
I2009171588
sg37
I579
sg38
I6593
sg39
I241
sg40
I26041
sg41
I30
sg42
I7
sg108
I9
sg43
I4
sg44
I12
sg45
I4
sg46
I17475
sg47
I432
sg48
(lp457
(dp458
VteamId
p459
I100
sVchampionId
p460
I64
sVsummonerId
p461
I22980754
sa(dp462
VteamId
p463
I100
sVchampionId
p464
I56
sVsummonerId
p465
I47532464
sa(dp466
VteamId
p467
I200
sVchampionId
p468
I40
sVsummonerId
p469
I50857944
sa(dp470
VteamId
p471
I200
sVchampionId
p472
I64
sVsummonerId
p473
I49220444
sa(dp474
VteamId
p475
I100
sVchampionId
p476
I99
sVsummonerId
p477
I37359011
sa(dp478
VteamId
p479
I100
sVchampionId
p480
I412
sVsummonerId
p481
I19509562
sa(dp482
VteamId
p483
I200
sVchampionId
p484
I120
sVsummonerId
p485
I31845282
sa(dp486
VteamId
p487
I200
sVchampionId
p488
I3
sVsummonerId
p489
I46579893
sa(dp490
VteamId
p491
I200
sVchampionId
p492
I67
sVsummonerId
p493
I32611881
sasg86
I184269
sg87
I245
sg88
VMATCHED_GAME
p494
sg90
I3068
sg91
I17755
sg92
I32224
sg93
I1
sg94
I100
sg95
I6
sg96
I38176
sg147
I3
sg98
I1324
sg99
I23636
sba.