(lp0
ccopy_reg
_reconstructor
p1
(cRiotAPI
GameData
p2
c__builtin__
object
p3
Ntp4
Rp5
(dp6
S'timePlayed'
p7
I1322
sS'win'
p8
I00
sS'wardPlaced'
p9
S'0'
p10
sS'mapId'
p11
I12
sS'totalDamageDealt'
p12
I53195
sS'magicDamageDealtToChampions'
p13
I12801
sS'playerPosition'
p14
g10
sS'subType'
p15
VARAM_UNRANKED_5x5
p16
sS'teamId'
p17
I100
sS'largestMultiKill'
p18
I2
sS'largestKillingSpree'
p19
I3
sS'ipEarned'
p20
I145
sS'magicDamageTaken'
p21
I13237
sS'magicDamageDealtPlayer'
p22
I40159
sS'totalTimeCrowdControlDealt'
p23
I1442
sS'champlevel'
p24
I17
sS'wardKilled'
p25
g10
sS'championId'
p26
I54
sS'item2'
p27
I3110
sS'item3'
p28
I3001
sS'item0'
p29
I3068
sS'item1'
p30
I3020
sS'item6'
p31
g10
sS'invalid'
p32
I00
sS'physicalDamageDealtToChampions'
p33
I5086
sS'gameMode'
p34
VARAM
p35
sS'minionsKilled'
p36
I46
sS'visionWardsBought'
p37
g10
sS'championsKilled'
p38
I11
sS'gameId'
p39
I1992394689
sS'sumlevel'
p40
I30
sS'assists'
p41
I8
sS'playerRole'
p42
g10
sS'spell1'
p43
I32
sS'spell2'
p44
I4
sS'goldSpent'
p45
I10955
sS'fellowPlayers'
p46
(lp47
(dp48
VteamId
p49
I200
sVchampionId
p50
I22
sVsummonerId
p51
I22136125
sa(dp52
VteamId
p53
I100
sVchampionId
p54
I27
sVsummonerId
p55
I59257599
sa(dp56
VteamId
p57
I100
sVchampionId
p58
I69
sVsummonerId
p59
I22764981
sa(dp60
VteamId
p61
I200
sVchampionId
p62
I57
sVsummonerId
p63
I22183442
sa(dp64
VteamId
p65
I100
sVchampionId
p66
I122
sVsummonerId
p67
I50220119
sa(dp68
VteamId
p69
I200
sVchampionId
p70
I29
sVsummonerId
p71
I47539712
sa(dp72
VteamId
p73
I200
sVchampionId
p74
I17
sVsummonerId
p75
I58110163
sa(dp76
VteamId
p77
I200
sVchampionId
p78
I10
sVsummonerId
p79
I37490615
sa(dp80
VteamId
p81
I100
sVchampionId
p82
I64
sVsummonerId
p83
I50391136
sasS'physicalDamageDealtPlayer'
p84
I11180
sS'totalHeal'
p85
I2717
sS'gameType'
p86
VMATCHED_GAME
p87
sS'item4'
p88
I3211
sS'goldEarned'
p89
I11381
sS'totalDamageDealtToChampions'
p90
I19007
sS'totalUnitsHealed'
p91
I1
sS'team'
p92
I100
sS'numDeaths'
p93
I11
sS'totalDamageTaken'
p94
I29888
sS'killingSprees'
p95
I4
sS'createDate'
p96
I1445994382646
sS'physicalDamageTaken'
p97
I13952
sbag1
(g2
g3
Ntp98
Rp99
(dp100
g7
I1466
sg8
I00
sg9
g10
sg11
I12
sg12
I83209
sg13
I18999
sg14
g10
sg15
VARAM_UNRANKED_5x5
p101
sg17
I100
sg18
I1
sg19
I4
sg20
I48
sg21
I10387
sg22
I76835
sg23
I79
sg24
I18
sg25
g10
sg26
I26
sg27
I3040
sg28
I3089
sg29
I3174
sg30
I3158
sg31
I2052
sg32
I00
sg33
I1494
sg34
VARAM
p102
sg36
I76
sg37
g10
sg38
I6
sg39
I1992423045
sg40
I30
sg41
I27
sg42
g10
sg43
I13
sg44
I4
sg45
I11625
sg46
(lp103
(dp104
VteamId
p105
I100
sVchampionId
p106
I157
sVsummonerId
p107
I49111855
sa(dp108
VteamId
p109
I200
sVchampionId
p110
I9
sVsummonerId
p111
I49054646
sa(dp112
VteamId
p113
I200
sVchampionId
p114
I222
sVsummonerId
p115
I71569190
sa(dp116
VteamId
p117
I200
sVchampionId
p118
I13
sVsummonerId
p119
I49044248
sa(dp120
VteamId
p121
I100
sVchampionId
p122
I79
sVsummonerId
p123
I37359011
sa(dp124
VteamId
p125
I200
sVchampionId
p126
I11
sVsummonerId
p127
I21819393
sa(dp128
VteamId
p129
I100
sVchampionId
p130
I34
sVsummonerId
p131
I50409155
sa(dp132
VteamId
p133
I200
sVchampionId
p134
I81
sVsummonerId
p135
I43500529
sa(dp136
VteamId
p137
I100
sVchampionId
p138
I59
sVsummonerId
p139
I24252783
sasg84
I6373
sg85
I4978
sg86
VMATCHED_GAME
p140
sg88
I1026
sg89
I12522
sg90
I20493
sg91
I1
sg92
I100
sg93
I10
sg94
I22719
sg95
I1
sg96
I1445996338981
sg97
I11840
sbag1
(g2
g3
Ntp141
Rp142
(dp143
g7
I911
sg8
I00
sg9
g10
sg11
I12
sg12
I9640
sg13
I1087
sg14
g10
sg15
VARAM_UNRANKED_5x5
p144
sg17
I100
sg18
I1
sg19
g10
sg20
I35
sg21
I6971
sg22
I1087
sg23
I511
sg24
I12
sg25
g10
sg26
I48
sg27
I1029
sg28
I1052
sg29
I3065
sg30
I3111
sg31
g10
sg32
I00
sg33
I1652
sg34
VARAM
p145
sg36
I16
sg37
g10
sg38
I1
sg39
I1994133831
sg40
I30
sg41
I7
sg42
g10
sg43
I32
sg44
I4
sg45
I6240
sg46
(lp146
(dp147
VteamId
p148
I100
sVchampionId
p149
I82
sVsummonerId
p150
I47312409
sa(dp151
VteamId
p152
I100
sVchampionId
p153
I29
sVsummonerId
p154
I47512529
sa(dp155
VteamId
p156
I200
sVchampionId
p157
I62
sVsummonerId
p158
I41767545
sa(dp159
VteamId
p160
I200
sVchampionId
p161
I110
sVsummonerId
p162
I26480710
sa(dp163
VteamId
p164
I200
sVchampionId
p165
I104
sVsummonerId
p166
I55926228
sa(dp167
VteamId
p168
I200
sVchampionId
p169
I44
sVsummonerId
p170
I61085940
sa(dp171
VteamId
p172
I100
sVchampionId
p173
I14
sVsummonerId
p174
I63683374
sa(dp175
VteamId
p176
I200
sVchampionId
p177
I1
sVsummonerId
p178
I28905465
sa(dp179
VteamId
p180
I100
sVchampionId
p181
I22
sVsummonerId
p182
I22123288
sasg84
I7898
sg85
I4284
sg86
VMATCHED_GAME
p183
sg88
I3044
sg89
I6433
sg90
I3099
sg91
I1
sg92
I100
sg93
I7
sg94
I20236
sg95
g10
sg96
I1446156609000
sg97
I13049
sbag1
(g2
g3
Ntp184
Rp185
(dp186
g7
I989
sg8
I00
sg9
g10
sg11
I12
sg12
I34935
sg13
I1036
sg14
g10
sg15
VARAM_UNRANKED_5x5
p187
sg17
I200
sg18
I2
sg19
I3
sg20
I36
sg21
I12263
sg22
I4827
sg23
I62
sg24
I14
sg25
g10
sg26
I59
sg27
I3134
sg28
I3155
sg29
I3071
sg30
I3111
sg31
I2052
sg32
I00
sg33
I10242
sg34
VARAM
p188
sg36
I52
sg37
g10
sg38
I7
sg39
I1994148421
sg40
I30
sg41
I11
sg42
g10
sg43
I32
sg44
I4
sg45
I8037
sg46
(lp189
(dp190
VteamId
p191
I200
sVchampionId
p192
I98
sVsummonerId
p193
I38893061
sa(dp194
VteamId
p195
I100
sVchampionId
p196
I76
sVsummonerId
p197
I48458616
sa(dp198
VteamId
p199
I100
sVchampionId
p200
I25
sVsummonerId
p201
I30435957
sa(dp202
VteamId
p203
I200
sVchampionId
p204
I61
sVsummonerId
p205
I33809888
sa(dp206
VteamId
p207
I100
sVchampionId
p208
I134
sVsummonerId
p209
I56529148
sa(dp210
VteamId
p211
I200
sVchampionId
p212
I92
sVsummonerId
p213
I68913362
sa(dp214
VteamId
p215
I200
sVchampionId
p216
I99
sVsummonerId
p217
I39941082
sa(dp218
VteamId
p219
I100
sVchampionId
p220
I107
sVsummonerId
p221
I29288478
sa(dp222
VteamId
p223
I100
sVchampionId
p224
I54
sVsummonerId
p225
I22123288
sasg84
I29028
sg85
I1877
sg86
VMATCHED_GAME
p226
sg88
I1037
sg89
I8532
sg90
I12153
sg91
I1
sg92
I200
sg93
I7
sg94
I16014
sg95
I2
sg96
I1446157911687
sg97
I3357
sbag1
(g2
g3
Ntp227
Rp228
(dp229
g7
I2021
sg8
I00
sg9
g10
sg11
I12
sg12
I101051
sg13
I23388
sg14
g10
sg15
VARAM_UNRANKED_5x5
p230
sg17
I200
sg18
I1
sg19
I2
sg20
I60
sg21
I16355
sg22
I89556
sg23
I262
sg24
I18
sg25
g10
sg26
I131
sg27
I3001
sg28
I3089
sg29
I3136
sg30
I3020
sg31
g10
sg32
I00
sg33
I1429
sg34
VARAM
p231
sg36
I75
sg37
g10
sg38
I5
sg39
I1994657177
sg40
I30
sg41
I17
sg42
g10
sg43
I32
sg44
I4
sg45
I14790
sg46
(lp232
(dp233
VteamId
p234
I200
sVchampionId
p235
I41
sVsummonerId
p236
I39567837
sa(dp237
VteamId
p238
I100
sVchampionId
p239
I29
sVsummonerId
p240
I27785151
sa(dp241
VteamId
p242
I200
sVchampionId
p243
I122
sVsummonerId
p244
I66893914
sa(dp245
VteamId
p246
I100
sVchampionId
p247
I143
sVsummonerId
p248
I25863983
sa(dp249
VteamId
p250
I200
sVchampionId
p251
I68
sVsummonerId
p252
I60841257
sa(dp253
VteamId
p254
I200
sVchampionId
p255
I84
sVsummonerId
p256
I47003735
sa(dp257
VteamId
p258
I100
sVchampionId
p259
I28
sVsummonerId
p260
I39532041
sa(dp261
VteamId
p262
I100
sVchampionId
p263
I429
sVsummonerId
p264
I39185337
sa(dp265
VteamId
p266
I100
sVchampionId
p267
I69
sVsummonerId
p268
I43309323
sasg84
I9898
sg85
I5442
sg86
VMATCHED_GAME
p269
sg88
I3135
sg89
I14645
sg90
I26133
sg91
I1
sg92
I200
sg93
I14
sg94
I39761
sg95
I1
sg96
I1446228198601
sg97
I21969
sbag1
(g2
g3
Ntp270
Rp271
(dp272
g7
I1183
sg8
I01
sg9
I3
sg11
I11
sg12
I37683
sg13
I4010
sg14
g10
sg15
VBOT
p273
sg17
I100
sg18
I1
sg19
I2
sg20
I189
sg21
I2717
sg22
I6373
sg23
I71
sg24
I12
sg25
g10
sg26
I78
sg27
I3146
sg28
I3057
sg29
I3097
sg30
I3047
sg31
I3340
sg32
I00
sg33
I3201
sg34
VCLASSIC
p274
sg36
I64
sg37
g10
sg38
I3
sg39
I1994661405
sg40
I30
sg41
I9
sg42
I2
sg43
I12
sg44
I4
sg45
I7000
sg46
(lp275
(dp276
VteamId
p277
I100
sVchampionId
p278
I238
sVsummonerId
p279
I20787284
sa(dp280
VteamId
p281
I100
sVchampionId
p282
I203
sVsummonerId
p283
I50287544
sa(dp284
VteamId
p285
I100
sVchampionId
p286
I22
sVsummonerId
p287
I36454088
sa(dp288
VteamId
p289
I100
sVchampionId
p290
I55
sVsummonerId
p291
I65921071
sasg84
I26940
sg85
I2681
sg86
VMATCHED_GAME
p292
sg88
I1036
sg89
I7369
sg90
I7211
sg91
I5
sg92
I100
sg93
I2
sg94
I10865
sg95
I1
sg96
I1446225910903
sg97
I8048
sbag1
(g2
g3
Ntp293
Rp294
(dp295
g7
I1491
sg8
I01
sg9
g10
sg11
I12
sg12
I20010
sg13
I148
sg14
g10
sg15
VARAM_UNRANKED_5x5
p296
sg17
I200
sg18
I1
sg19
g10
sg20
I70
sg21
I16170
sg22
I657
sg23
I295
sg24
I18
sg25
g10
sg26
I77
sg27
I3190
sg28
I3110
sg29
I3111
sg30
I3065
sg31
g10
sg32
I00
sg33
I7670
sg34
VARAM
p297
sg36
I16
sg37
g10
sg38
I6
sg39
I1994862268
sg40
I30
sg41
I15
sg42
g10
sg43
I3
sg44
I4
sg45
I9770
sg46
(lp298
(dp299
VteamId
p300
I200
sVchampionId
p301
I161
sVsummonerId
p302
I51621303
sa(dp303
VteamId
p304
I100
sVchampionId
p305
I20
sVsummonerId
p306
I26442001
sa(dp307
VteamId
p308
I100
sVchampionId
p309
I15
sVsummonerId
p310
I20061452
sa(dp311
VteamId
p312
I200
sVchampionId
p313
I22
sVsummonerId
p314
I48042814
sa(dp315
VteamId
p316
I200
sVchampionId
p317
I55
sVsummonerId
p318
I25099447
sa(dp319
VteamId
p320
I100
sVchampionId
p321
I25
sVsummonerId
p322
I26389565
sa(dp323
VteamId
p324
I100
sVchampionId
p325
I38
sVsummonerId
p326
I39244271
sa(dp327
VteamId
p328
I200
sVchampionId
p329
I76
sVsummonerId
p330
I48619191
sa(dp331
VteamId
p332
I100
sVchampionId
p333
I117
sVsummonerId
p334
I52995724
sasg84
I19352
sg85
I3384
sg86
VMATCHED_GAME
p335
sg88
I1042
sg89
I10532
sg90
I7818
sg91
I1
sg92
I200
sg93
I9
sg94
I34097
sg95
g10
sg96
I1446249070170
sg97
I16547
sbag1
(g2
g3
Ntp336
Rp337
(dp338
g7
I1132
sg8
I01
sg9
g10
sg11
I12
sg12
I38253
sg13
I15682
sg14
g10
sg15
VARAM_UNRANKED_5x5
p339
sg17
I100
sg18
I2
sg19
I3
sg20
I56
sg21
I11825
sg22
I33251
sg23
I286
sg24
I17
sg25
g10
sg26
I27
sg27
I3143
sg28
I3801
sg29
I3111
sg30
I3027
sg31
I2052
sg32
I00
sg33
I2114
sg34
VARAM
p340
sg36
I28
sg37
g10
sg38
I10
sg39
I1994891505
sg40
I30
sg41
I24
sg42
g10
sg43
I32
sg44
I4
sg45
I8540
sg46
(lp341
(dp342
VteamId
p343
I200
sVchampionId
p344
I4
sVsummonerId
p345
I31703306
sa(dp346
VteamId
p347
I200
sVchampionId
p348
I236
sVsummonerId
p349
I33340085
sa(dp350
VteamId
p351
I100
sVchampionId
p352
I44
sVsummonerId
p353
I22497002
sa(dp354
VteamId
p355
I100
sVchampionId
p356
I25
sVsummonerId
p357
I66341113
sa(dp358
VteamId
p359
I200
sVchampionId
p360
I55
sVsummonerId
p361
I34103543
sa(dp362
VteamId
p363
I200
sVchampionId
p364
I58
sVsummonerId
p365
I22435438
sa(dp366
VteamId
p367
I100
sVchampionId
p368
I18
sVsummonerId
p369
I28080124
sa(dp370
VteamId
p371
I100
sVchampionId
p372
I22
sVsummonerId
p373
I31306548
sa(dp374
VteamId
p375
I200
sVchampionId
p376
I15
sVsummonerId
p377
I68491954
sasg84
I3231
sg85
I4354
sg86
VMATCHED_GAME
p378
sg88
I3211
sg89
I10315
sg90
I19426
sg91
I1
sg92
I100
sg93
I7
sg94
I25512
sg95
I3
sg96
I1446250477865
sg97
I13481
sbag1
(g2
g3
Ntp379
Rp380
(dp381
g7
I867
sg8
I00
sg9
g10
sg11
I12
sg12
I20028
sg13
I6610
sg14
g10
sg15
VARAM_UNRANKED_5x5
p382
sg17
I100
sg18
I2
sg19
I2
sg20
I33
sg21
I9600
sg22
I16315
sg23
I624
sg24
I12
sg25
g10
sg26
I13
sg27
I3027
sg28
I3020
sg29
I3070
sg30
I3024
sg31
I2052
sg32
I00
sg33
I893
sg34
VARAM
p383
sg36
I19
sg37
g10
sg38
I3
sg39
I1994905535
sg40
I30
sg41
I5
sg42
g10
sg43
I32
sg44
I4
sg45
I5735
sg46
(lp384
(dp385
VteamId
p386
I200
sVchampionId
p387
I9
sVsummonerId
p388
I38367599
sa(dp389
VteamId
p390
I200
sVchampionId
p391
I86
sVsummonerId
p392
I20066641
sa(dp393
VteamId
p394
I200
sVchampionId
p395
I74
sVsummonerId
p396
I38854643
sa(dp397
VteamId
p398
I200
sVchampionId
p399
I115
sVsummonerId
p400
I25366884
sa(dp401
VteamId
p402
I100
sVchampionId
p403
I126
sVsummonerId
p404
I27913513
sa(dp405
VteamId
p406
I200
sVchampionId
p407
I40
sVsummonerId
p408
I24967103
sa(dp409
VteamId
p410
I100
sVchampionId
p411
I79
sVsummonerId
p412
I21891938
sa(dp413
VteamId
p414
I100
sVchampionId
p415
I133
sVsummonerId
p416
I39228885
sa(dp417
VteamId
p418
I100
sVchampionId
p419
I203
sVsummonerId
p420
I35026385
sasg84
I3267
sg85
I607
sg86
VMATCHED_GAME
p421
sg88
g10
sg89
I6216
sg90
I7828
sg91
I1
sg92
I100
sg93
I7
sg94
I12910
sg95
I1
sg96
I1446251613853
sg97
I3013
sbag1
(g2
g3
Ntp422
Rp423
(dp424
g7
I1484
sg8
I01
sg9
I16
sg11
I11
sg12
I17753
sg13
I4018
sg14
I4
sg15
VNORMAL
p425
sg17
I200
sg18
I1
sg19
I2
sg20
I76
sg21
I4169
sg22
I10741
sg23
I100
sg24
I11
sg25
I5
sg26
I412
sg27
I2049
sg28
I3117
sg29
I1031
sg30
I3069
sg31
I3364
sg32
I00
sg33
I758
sg34
VCLASSIC
p426
sg36
I9
sg37
I1
sg38
I3
sg39
I1994939955
sg40
I30
sg41
I6
sg42
I2
sg43
I3
sg44
I4
sg45
I6045
sg46
(lp427
(dp428
VteamId
p429
I200
sVchampionId
p430
I107
sVsummonerId
p431
I38817981
sa(dp432
VteamId
p433
I100
sVchampionId
p434
I412
sVsummonerId
p435
I51779612
sa(dp436
VteamId
p437
I200
sVchampionId
p438
I67
sVsummonerId
p439
I146153
sa(dp440
VteamId
p441
I100
sVchampionId
p442
I85
sVsummonerId
p443
I26393337
sa(dp444
VteamId
p445
I100
sVchampionId
p446
I222
sVsummonerId
p447
I60275436
sa(dp448
VteamId
p449
I200
sVchampionId
p450
I120
sVsummonerId
p451
I49204038
sa(dp452
VteamId
p453
I200
sVchampionId
p454
I112
sVsummonerId
p455
I63652721
sa(dp456
VteamId
p457
I100
sVchampionId
p458
I84
sVsummonerId
p459
I50846681
sa(dp460
VteamId
p461
I100
sVchampionId
p462
I113
sVsummonerId
p463
I57569826
sasg84
I7011
sg85
I919
sg86
VMATCHED_GAME
p464
sg88
I3751
sg89
I6864
sg90
I4777
sg91
I1
sg92
I200
sg93
I2
sg94
I9195
sg95
I1
sg96
I1446253355369
sg97
I5026
sbag1
(g2
g3
Ntp465
Rp466
(dp467
g7
I1312
sg8
I01
sg34
VARAM
p468
sg11
I12
sg12
I55866
sg13
I2658
sg15
VARAM_UNRANKED_5x5
p469
sg17
I200
sg18
I2
sg19
I4
sg20
I213
sg21
I13085
sg23
I296
sg24
I18
sS'trueDamageDealtPlayer'
p470
I1900
sg26
I120
sg27
I2051
sg28
I3142
sg96
I1446694282324
sg30
I3078
sg31
S'0'
p471
sg32
I00
sg33
I11220
sg36
I61
sg38
I10
sg39
I1999901605
sS'doubleKills'
p472
I1
sS'trueDamageTaken'
p473
I1182
sg40
I30
sg41
I22
sg43
I32
sg44
I4
sg45
I11153
sS'trueDamageDealtToChampions'
p474
I1425
sg46
(lp475
(dp476
VteamId
p477
I200
sVchampionId
p478
I53
sVsummonerId
p479
I58342820
sa(dp480
VteamId
p481
I200
sVchampionId
p482
I76
sVsummonerId
p483
I63582781
sa(dp484
VteamId
p485
I100
sVchampionId
p486
I117
sVsummonerId
p487
I43799422
sa(dp488
VteamId
p489
I100
sVchampionId
p490
I33
sVsummonerId
p491
I32353013
sa(dp492
VteamId
p493
I100
sVchampionId
p494
I11
sVsummonerId
p495
I61305362
sa(dp496
VteamId
p497
I200
sVchampionId
p498
I104
sVsummonerId
p499
I24716278
sa(dp500
VteamId
p501
I100
sVchampionId
p502
I13
sVsummonerId
p503
I42173274
sa(dp504
VteamId
p505
I200
sVchampionId
p506
I41
sVsummonerId
p507
I49251751
sa(dp508
VteamId
p509
I100
sVchampionId
p510
I90
sVsummonerId
p511
I61275306
sasg84
I44938
sg85
I7744
sg86
VMATCHED_GAME
p512
sg22
I9028
sg89
I11727
sS'turretsKilled'
p513
I1
sg90
I15303
sg91
I1
sg92
I200
sg93
I6
sg94
I29103
sg95
I2
sg29
I3009
sg97
I14835
sbag1
(g2
g3
Ntp514
Rp515
(dp516
g7
I1405
sg8
I00
sg34
VARAM
p517
sg11
I12
sg12
I73561
sg13
I30831
sg15
VARAM_UNRANKED_5x5
p518
sg17
I200
sg18
I2
sg19
I4
sg20
I46
sg21
I12984
sg23
I199
sg24
I18
sg470
I1025
sg26
I25
sg27
I3089
sg28
I3135
sg96
I1446696010721
sg30
I3020
sg31
g471
sg32
I00
sg33
I1125
sg36
I58
sg38
I15
sg39
I1999941937
sg472
I2
sg473
I2603
sg40
I30
sg41
I19
sg43
I32
sg44
I4
sg45
I12390
sg474
I520
sg46
(lp519
(dp520
VteamId
p521
I200
sVchampionId
p522
I11
sVsummonerId
p523
I49661107
sa(dp524
VteamId
p525
I200
sVchampionId
p526
I76
sVsummonerId
p527
I28389998
sa(dp528
VteamId
p529
I100
sVchampionId
p530
I80
sVsummonerId
p531
I58470615
sa(dp532
VteamId
p533
I200
sVchampionId
p534
I12
sVsummonerId
p535
I34806391
sa(dp536
VteamId
p537
I100
sVchampionId
p538
I99
sVsummonerId
p539
I58130703
sa(dp540
VteamId
p541
I100
sVchampionId
p542
I1
sVsummonerId
p543
I43244513
sa(dp544
VteamId
p545
I100
sVchampionId
p546
I86
sVsummonerId
p547
I64983058
sa(dp548
VteamId
p549
I200
sVchampionId
p550
I64
sVsummonerId
p551
I51674402
sa(dp552
VteamId
p553
I100
sVchampionId
p554
I40
sVsummonerId
p555
I26686144
sasg84
I6839
sg85
I3279
sg86
VMATCHED_GAME
p556
sg22
I65697
sg89
I12942
sg513
I1
sg90
I32476
sg91
I1
sg92
I200
sg93
I6
sg94
I24222
sg95
I5
sg29
I3174
sg97
I8634
sbag1
(g2
g3
Ntp557
Rp558
(dp559
g7
I1647
sg8
I01
sg34
VARAM
p560
sg11
I12
sg12
I43305
sg13
I9711
sg15
VARAM_UNRANKED_5x5
p561
sg17
I200
sg18
I1
sg19
g471
sg20
I177
sg21
I12214
sg23
I189
sg24
I18
sg470
I920
sg26
I40
sg27
I3069
sg28
I3089
sg96
I1446697930479
sg30
I3158
sg31
I2052
sg32
I00
sg33
I785
sg36
I32
sg38
I2
sg39
I2000002426
sg472
g471
sg473
I280
sg40
I30
sg41
I21
sg43
I32
sg44
I4
sg45
I12225
sg474
I875
sg46
(lp562
(dp563
VteamId
p564
I200
sVchampionId
p565
I113
sVsummonerId
p566
I34175865
sa(dp567
VteamId
p568
I100
sVchampionId
p569
I112
sVsummonerId
p570
I31311170
sa(dp571
VteamId
p572
I200
sVchampionId
p573
I203
sVsummonerId
p574
I50364759
sa(dp575
VteamId
p576
I100
sVchampionId
p577
I86
sVsummonerId
p578
I50665296
sa(dp579
VteamId
p580
I100
sVchampionId
p581
I81
sVsummonerId
p582
I53085400
sa(dp583
VteamId
p584
I100
sVchampionId
p585
I17
sVsummonerId
p586
I65304809
sa(dp587
VteamId
p588
I200
sVchampionId
p589
I115
sVsummonerId
p590
I34571427
sa(dp591
VteamId
p592
I200
sVchampionId
p593
I41
sVsummonerId
p594
I35609814
sa(dp595
VteamId
p596
I100
sVchampionId
p597
I21
sVsummonerId
p598
I25253247
sasg84
I4824
sg85
I5768
sg86
VMATCHED_GAME
p599
sg22
I37561
sg89
I12586
sg513
g471
sg90
I11372
sg91
I10
sg92
I200
sg93
I8
sg94
I22126
sg95
g471
sg29
I3174
sg97
I9631
sbag1
(g2
g3
Ntp600
Rp601
(dp602
g7
I1277
sg8
I01
sg34
VARAM
p603
sg11
I12
sg12
I55888
sg13
I2935
sg15
VARAM_UNRANKED_5x5
p604
sg17
I200
sg18
I2
sg19
I2
sg20
I63
sg21
I15453
sg23
I100
sg24
I17
sg470
I780
sg26
I59
sg27
I3748
sg28
I3156
sg96
I1446699434453
sg30
I3071
sg31
I2052
sg32
I00
sg33
I13800
sg36
I57
sg38
I10
sg39
I2000092924
sg472
I2
sg473
I295
sg40
I30
sg41
I25
sg43
I32
sg44
I4
sg45
I10980
sg474
I780
sg46
(lp605
(dp606
VteamId
p607
I200
sVchampionId
p608
I201
sVsummonerId
p609
I41958641
sa(dp610
VteamId
p611
I100
sVchampionId
p612
I32
sVsummonerId
p613
I26777012
sa(dp614
VteamId
p615
I100
sVchampionId
p616
I126
sVsummonerId
p617
I34737521
sa(dp618
VteamId
p619
I200
sVchampionId
p620
I12
sVsummonerId
p621
I40290957
sa(dp622
VteamId
p623
I100
sVchampionId
p624
I68
sVsummonerId
p625
I62247958
sa(dp626
VteamId
p627
I100
sVchampionId
p628
I45
sVsummonerId
p629
I43257337
sa(dp630
VteamId
p631
I200
sVchampionId
p632
I154
sVsummonerId
p633
I36991416
sa(dp634
VteamId
p635
I200
sVchampionId
p636
I26
sVsummonerId
p637
I45331605
sa(dp638
VteamId
p639
I100
sVchampionId
p640
I63
sVsummonerId
p641
I37496895
sasg84
I48007
sg85
I3797
sg86
VMATCHED_GAME
p642
sg22
I7100
sg89
I11519
sg513
I2
sg90
I17516
sg91
I1
sg92
I200
sg93
I9
sg94
I22895
sg95
I3
sg29
I3111
sg97
I7146
sbag1
(g2
g3
Ntp643
Rp644
(dp645
g7
I1430
sg8
I01
sg34
VARAM
p646
sg11
I12
sg12
I82246
sg13
I9342
sg15
VARAM_UNRANKED_5x5
p647
sg17
I200
sg18
I2
sg19
I3
sg20
I68
sg21
I14883
sg22
I32176
sg23
I628
sg24
I18
sg470
I1710
sg26
I14
sg27
I3025
sg28
I3111
sg96
I1446770749222
sg30
I3083
sg31
I2052
sg32
I00
sg33
I17703
sg36
I78
sg38
I11
sg39
I2000649436
sg472
I1
sg473
I2118
sg40
I30
sg41
I30
sg43
I32
sg44
I4
sg45
I12400
sg474
I1550
sg46
(lp648
(dp649
VteamId
p650
I100
sVchampionId
p651
I2
sVsummonerId
p652
I32046212
sa(dp653
VteamId
p654
I200
sVchampionId
p655
I25
sVsummonerId
p656
I27799513
sa(dp657
VteamId
p658
I100
sVchampionId
p659
I55
sVsummonerId
p660
I37093620
sa(dp661
VteamId
p662
I200
sVchampionId
p663
I41
sVsummonerId
p664
I62602916
sa(dp665
VteamId
p666
I100
sVchampionId
p667
I20
sVsummonerId
p668
I47944870
sa(dp669
VteamId
p670
I200
sVchampionId
p671
I86
sVsummonerId
p672
I39879141
sa(dp673
VteamId
p674
I100
sVchampionId
p675
I22
sVsummonerId
p676
I34874702
sa(dp677
VteamId
p678
I200
sVchampionId
p679
I110
sVsummonerId
p680
I48421331
sa(dp681
VteamId
p682
I100
sVchampionId
p683
I11
sVsummonerId
p684
I47500207
sasg84
I48360
sg85
I25307
sg86
VMATCHED_GAME
p685
sg88
I3071
sg89
I13512
sg90
I28596
sg91
I1
sg92
I200
sg93
I8
sg94
I36481
sg95
I3
sg29
I3068
sg97
I19478
sbag1
(g2
g3
Ntp686
Rp687
(dp688
g7
I1549
sg8
I00
sg34
VARAM
p689
sg11
I12
sg12
I84040
sg13
I12935
sg15
VARAM_UNRANKED_5x5
p690
sg17
I200
sg18
I1
sg19
I2
sg20
I49
sg21
I21974
sg22
I47733
sg24
I17
sg470
I3185
sg26
I42
sg27
I3031
sg28
I3086
sg96
I1446772562925
sg30
I3006
sg31
I2052
sg32
I00
sg33
I4934
sg36
I92
sg38
I6
sg39
I2000677779
sS'largestCriticalStrike'
p691
I868
sg473
I1088
sg40
I30
sg41
I9
sg43
I32
sg44
I4
sg45
I12205
sg474
I1252
sg46
(lp692
(dp693
VteamId
p694
I200
sVchampionId
p695
I89
sVsummonerId
p696
I38829010
sa(dp697
VteamId
p698
I100
sVchampionId
p699
I103
sVsummonerId
p700
I56879177
sa(dp701
VteamId
p702
I200
sVchampionId
p703
I55
sVsummonerId
p704
I40738642
sa(dp705
VteamId
p706
I100
sVchampionId
p707
I16
sVsummonerId
p708
I61461545
sa(dp709
VteamId
p710
I100
sVchampionId
p711
I101
sVsummonerId
p712
I28705361
sa(dp713
VteamId
p714
I200
sVchampionId
p715
I105
sVsummonerId
p716
I58627378
sa(dp717
VteamId
p718
I100
sVchampionId
p719
I99
sVsummonerId
p720
I58271953
sa(dp721
VteamId
p722
I100
sVchampionId
p723
I28
sVsummonerId
p724
I65850170
sa(dp725
VteamId
p726
I200
sVchampionId
p727
I41
sVsummonerId
p728
I66083742
sasg84
I33121
sg85
I3943
sg86
VMATCHED_GAME
p729
sg88
I3072
sg89
I12479
sg90
I19122
sg91
I1
sg92
I200
sg93
I14
sg94
I28053
sg95
I1
sg29
I3004
sg97
I4990
sbag1
(g2
g3
Ntp730
Rp731
(dp732
g7
I1647
sg8
I00
sg34
VARAM
p733
sg11
I12
sg12
I95714
sg13
I3778
sg15
VARAM_UNRANKED_5x5
p734
sg17
I200
sg18
I2
sg19
I2
sg20
I52
sg21
I22463
sg22
I15514
sg23
I86
sg24
I18
sg470
I1165
sg26
I18
sg27
I3046
sg28
I3072
sg96
I1446858013264
sg30
I3006
sg31
I2052
sg32
I00
sS'item5'
p735
I1037
sg36
I77
sg38
I13
sg39
I2001667021
sg472
I1
sg473
I1625
sg33
I30269
sg40
I30
sg41
I13
sg43
I32
sg44
I4
sg45
I12510
sg474
I995
sg46
(lp736
(dp737
VteamId
p738
I200
sVchampionId
p739
I79
sVsummonerId
p740
I29729415
sa(dp741
VteamId
p742
I200
sVchampionId
p743
I55
sVsummonerId
p744
I27778776
sa(dp745
VteamId
p746
I100
sVchampionId
p747
I7
sVsummonerId
p748
I45573905
sa(dp749
VteamId
p750
I100
sVchampionId
p751
I12
sVsummonerId
p752
I43563330
sa(dp753
VteamId
p754
I100
sVchampionId
p755
I111
sVsummonerId
p756
I38386207
sa(dp757
VteamId
p758
I100
sVchampionId
p759
I223
sVsummonerId
p760
I50215122
sa(dp761
VteamId
p762
I100
sVchampionId
p763
I40
sVsummonerId
p764
I50800642
sa(dp765
VteamId
p766
I200
sVchampionId
p767
I32
sVsummonerId
p768
I41776101
sa(dp769
VteamId
p770
I200
sVchampionId
p771
I236
sVsummonerId
p772
I60571201
sasg84
I79034
sg85
I2633
sg86
VMATCHED_GAME
p773
sg88
I1036
sg89
I13900
sg691
I807
sg513
I1
sg90
I35042
sg91
I1
sg92
I200
sg93
I11
sg94
I30492
sg95
I4
sg29
I3031
sg97
I6403
sbag1
(g2
g3
Ntp774
Rp775
(dp776
g7
I2043
sg8
I00
sg34
VARAM
p777
sg11
I12
sg12
I47650
sg13
I3030
sg15
VARAM_UNRANKED_5x5
p778
sg17
I100
sg18
I1
sg19
I2
sg20
I62
sg21
I21762
sg22
I14886
sg23
I839
sg24
I18
sg470
I2180
sg26
I77
sg27
I3143
sg28
I3065
sg96
I1446868876522
sg30
I3190
sg32
I00
sg735
I3057
sg36
I39
sg38
I6
sg39
I2001825592
sg473
I3285
sg33
I13922
sg40
I30
sg41
I27
sg43
I32
sg44
I4
sg45
I13255
sg474
I1740
sg46
(lp779
(dp780
VteamId
p781
I100
sVchampionId
p782
I110
sVsummonerId
p783
I53570551
sa(dp784
VteamId
p785
I200
sVchampionId
p786
I86
sVsummonerId
p787
I37796084
sa(dp788
VteamId
p789
I100
sVchampionId
p790
I99
sVsummonerId
p791
I44807510
sa(dp792
VteamId
p793
I200
sVchampionId
p794
I32
sVsummonerId
p795
I48103180
sa(dp796
VteamId
p797
I100
sVchampionId
p798
I5
sVsummonerId
p799
I67889089
sa(dp800
VteamId
p801
I200
sVchampionId
p802
I78
sVsummonerId
p803
I35366616
sa(dp804
VteamId
p805
I200
sVchampionId
p806
I103
sVsummonerId
p807
I38052163
sa(dp808
VteamId
p809
I200
sVchampionId
p810
I222
sVsummonerId
p811
I51152113
sa(dp812
VteamId
p813
I100
sVchampionId
p814
I101
sVsummonerId
p815
I19793175
sasg84
I30583
sg85
I7116
sg86
VMATCHED_GAME
p816
sg88
I3068
sg89
I13722
sg513
I1
sg90
I18693
sg91
I1
sg92
I100
sg93
I12
sg94
I52083
sg95
I1
sg29
I3111
sg97
I27036
sbag1
(g2
g3
Ntp817
Rp818
(dp819
g7
I946
sg22
I37325
sg8
I01
sg34
VARAM
p820
sg11
I12
sg12
I44478
sg13
I14787
sg15
VARAM_UNRANKED_5x5
p821
sg17
I100
sg18
I1
sg19
I2
sg20
I199
sg21
I7435
sS'barracksKilled'
p822
I1
sg23
I94
sg24
I15
sg470
I635
sg26
I74
sg27
I1004
sg28
I1004
sg96
I1446925723301
sg30
I3020
sg32
I00
sg735
I1033
sg36
I36
sg38
I4
sg39
I2002458161
sg473
I270
sg33
I666
sg40
I30
sg41
I16
sg43
I32
sg44
I4
sg45
I5870
sg474
I480
sg46
(lp823
(dp824
VteamId
p825
I200
sVchampionId
p826
I7
sVsummonerId
p827
I53797345
sa(dp828
VteamId
p829
I200
sVchampionId
p830
I113
sVsummonerId
p831
I23487086
sa(dp832
VteamId
p833
I100
sVchampionId
p834
I37
sVsummonerId
p835
I31752832
sa(dp836
VteamId
p837
I200
sVchampionId
p838
I27
sVsummonerId
p839
I32548050
sa(dp840
VteamId
p841
I200
sVchampionId
p842
I69
sVsummonerId
p843
I32550087
sa(dp844
VteamId
p845
I100
sVchampionId
p846
I68
sVsummonerId
p847
I42880460
sa(dp848
VteamId
p849
I200
sVchampionId
p850
I20
sVsummonerId
p851
I44125410
sa(dp852
VteamId
p853
I100
sVchampionId
p854
I11
sVsummonerId
p855
I45767159
sa(dp856
VteamId
p857
I100
sVchampionId
p858
I59
sVsummonerId
p859
I42804071
sasg84
I6518
sg85
I1470
sg86
VMATCHED_GAME
p860
sg88
I3108
sg89
I8491
sg90
I15933
sg91
I1
sg92
I100
sg93
I3
sg94
I8877
sg95
I1
sg29
I3003
sg97
I1171
sbag1
(g2
g3
Ntp861
Rp862
(dp863
g7
I2916
sg8
I00
sg9
I12
sg11
I11
sg12
I246099
sg13
I4824
sg14
I1
sg15
VNORMAL
p864
sg17
I200
sg18
I2
sg19
I6
sg20
I84
sg21
I13655
sg22
I28200
sg23
I1382
sg24
I18
sg470
I610
sS'neutralMinionsKilledEnemyJungle'
p865
I1
sg26
I150
sg27
I3143
sg28
I1324
sg96
I1446930227414
sg30
I3153
sg31
I3361
sg32
I00
sg735
I3078
sg34
VCLASSIC
p866
sg36
I252
sg44
I4
sg25
I3
sg38
I16
sg39
I2002559880
sg472
I3
sg473
I1651
sg40
I30
sg41
I15
sS'neutralMinionsKilled'
p867
I1
sg42
I4
sg33
I37405
sg43
I12
sg45
I17603
sg474
I186
sg46
(lp868
(dp869
VteamId
p870
I200
sVchampionId
p871
I254
sVsummonerId
p872
I22193810
sa(dp873
VteamId
p874
I200
sVchampionId
p875
I103
sVsummonerId
p876
I37359011
sa(dp877
VteamId
p878
I200
sVchampionId
p879
I22
sVsummonerId
p880
I19509562
sa(dp881
VteamId
p882
I100
sVchampionId
p883
I107
sVsummonerId
p884
I52822383
sa(dp885
VteamId
p886
I200
sVchampionId
p887
I12
sVsummonerId
p888
I24820337
sa(dp889
VteamId
p890
I100
sVchampionId
p891
I29
sVsummonerId
p892
I31851179
sa(dp893
VteamId
p894
I100
sVchampionId
p895
I203
sVsummonerId
p896
I58472448
sa(dp897
VteamId
p898
I100
sVchampionId
p899
I121
sVsummonerId
p900
I38549213
sa(dp901
VteamId
p902
I100
sVchampionId
p903
I1
sVsummonerId
p904
I30572607
sasg84
I217288
sg85
I2827
sg86
VMATCHED_GAME
p905
sg88
I3068
sg89
I18950
sg691
I685
sg513
I1
sg90
I42416
sg91
I1
sg92
I200
sg93
I11
sg94
I50238
sg95
I4
sg29
I3071
sg97
I34931
sbag1
(g2
g3
Ntp906
Rp907
(dp908
g7
I1923
sg8
I00
sg9
I16
sg11
I11
sg12
I151672
sg13
I1159
sg14
I1
sg15
VNORMAL
p909
sg17
I200
sg18
I2
sg19
I2
sg20
I61
sg21
I5715
sg22
I2972
sg23
I73
sg24
I16
sg25
I1
sg26
I58
sg27
I3074
sg28
I3082
sg96
I1446932459647
sg30
I3111
sg31
I3361
sg32
I00
sg33
I14446
sg34
VCLASSIC
p910
sg36
I219
sg37
I2
sg38
I4
sg39
I2002579349
sg472
I1
sg473
I864
sg40
I30
sg41
I2
sg42
I4
sg43
I12
sg44
I4
sg45
I10525
sg46
(lp911
(dp912
VteamId
p913
I100
sVchampionId
p914
I126
sVsummonerId
p915
I33411484
sa(dp916
VteamId
p917
I100
sVchampionId
p918
I38
sVsummonerId
p919
I48359049
sa(dp920
VteamId
p921
I100
sVchampionId
p922
I25
sVsummonerId
p923
I45028075
sa(dp924
VteamId
p925
I200
sVchampionId
p926
I223
sVsummonerId
p927
I22193810
sa(dp928
VteamId
p929
I100
sVchampionId
p930
I18
sVsummonerId
p931
I60266730
sa(dp932
VteamId
p933
I200
sVchampionId
p934
I99
sVsummonerId
p935
I37359011
sa(dp936
VteamId
p937
I200
sVchampionId
p938
I22
sVsummonerId
p939
I19509562
sa(dp940
VteamId
p941
I200
sVchampionId
p942
I79
sVsummonerId
p943
I24820337
sa(dp944
VteamId
p945
I100
sVchampionId
p946
I59
sVsummonerId
p947
I35702929
sasg84
I148700
sg85
I4952
sg86
VMATCHED_GAME
p948
sg88
I1011
sg89
I10843
sg513
I2
sg90
I15605
sg91
I1
sg92
I200
sg93
I6
sg94
I28618
sg95
I2
sg29
I3071
sg97
I22039
sbag1
(g2
g3
Ntp949
Rp950
(dp951
g7
I2430
sg8
I01
sg9
I26
sg11
I11
sg12
I32524
sg13
I6390
sg14
I4
sg15
VNORMAL
p952
sg17
I100
sg18
I1
sg32
I00
sg21
I8221
sg23
I113
sg24
I17
sg25
I3
sg26
I412
sg27
I2049
sg28
I3190
sg96
I1446935367519
sg30
I3401
sg31
I3364
sg20
I110
sg735
I1029
sg34
VCLASSIC
p953
sg36
I62
sg44
I4
sg37
I1
sg38
I2
sg39
I2002677803
sg473
I1129
sg40
I30
sg41
I23
sg42
I2
sg33
I885
sg43
I3
sg45
I10415
sg46
(lp954
(dp955
VteamId
p956
I200
sVchampionId
p957
I103
sVsummonerId
p958
I44860060
sa(dp959
VteamId
p960
I100
sVchampionId
p961
I59
sVsummonerId
p962
I22193810
sa(dp963
VteamId
p964
I100
sVchampionId
p965
I157
sVsummonerId
p966
I37359011
sa(dp967
VteamId
p968
I100
sVchampionId
p969
I22
sVsummonerId
p970
I19509562
sa(dp971
VteamId
p972
I200
sVchampionId
p973
I223
sVsummonerId
p974
I41971640
sa(dp975
VteamId
p976
I100
sVchampionId
p977
I238
sVsummonerId
p978
I24820337
sa(dp979
VteamId
p980
I200
sVchampionId
p981
I64
sVsummonerId
p982
I31558967
sa(dp983
VteamId
p984
I200
sVchampionId
p985
I119
sVsummonerId
p986
I40919491
sa(dp987
VteamId
p988
I200
sVchampionId
p989
I53
sVsummonerId
p990
I47136858
sasg84
I10159
sg85
I3572
sg86
VMATCHED_GAME
p991
sg88
I3068
sg89
I11339
sg90
I7276
sg91
I5
sg92
I100
sg93
I7
sg94
I27748
sg22
I22365
sg29
I1329
sg97
I18396
sbag1
(g2
g3
Ntp992
Rp993
(dp994
g7
I1623
sg8
I01
sg9
I8
sg11
I11
sg12
I153047
sg13
I737
sg14
I4
sg15
VNORMAL
p995
sg17
I200
sg18
I2
sg19
I7
sg20
I80
sg21
I4632
sg22
I7529
sg23
I58
sg24
I14
sg470
I152
sg865
I4
sg26
I15
sg27
I3006
sg28
I3087
sg96
I1446937614986
sg30
I3031
sg31
I3361
sg32
I00
sg33
I12707
sg34
VCLASSIC
p996
sg36
I205
sg25
I1
sS'neutralMinionsKilledYourJungle'
p997
I5
sg38
I9
sg39
I2002772139
sg472
I2
sg40
I30
sg41
I5
sg867
I9
sg42
I3
sg43
I7
sg44
I4
sg45
I11965
sg474
I70
sg46
(lp998
(dp999
VteamId
p1000
I100
sVchampionId
p1001
I85
sVsummonerId
p1002
I38037435
sa(dp1003
VteamId
p1004
I200
sVchampionId
p1005
I99
sVsummonerId
p1006
I52446196
sa(dp1007
VteamId
p1008
I200
sVchampionId
p1009
I64
sVsummonerId
p1010
I39174593
sa(dp1011
VteamId
p1012
I100
sVchampionId
p1013
I38
sVsummonerId
p1014
I65233456
sa(dp1015
VteamId
p1016
I200
sVchampionId
p1017
I120
sVsummonerId
p1018
I37359011
sa(dp1019
VteamId
p1020
I200
sVchampionId
p1021
I89
sVsummonerId
p1022
I24820337
sa(dp1023
VteamId
p1024
I100
sVchampionId
p1025
I64
sVsummonerId
p1026
I50670070
sa(dp1027
VteamId
p1028
I100
sVchampionId
p1029
I3
sVsummonerId
p1030
I58697781
sa(dp1031
VteamId
p1032
I100
sVchampionId
p1033
I17
sVsummonerId
p1034
I61296357
sasg84
I145366
sg85
I771
sg86
VMATCHED_GAME
p1035
sg88
I3072
sg89
I12035
sg691
I588
sg513
I2
sg90
I13514
sg91
I2
sg92
I200
sg93
I1
sg94
I8485
sg95
I2
sg29
I1055
sg97
I3853
sbag1
(g2
g3
Ntp1036
Rp1037
(dp1038
g7
I2004
sg8
I00
sg9
I11
sg11
I11
sg12
I152925
sg13
I11505
sg14
I3
sg15
VNORMAL
p1039
sg17
I100
sg18
I1
sg19
I2
sg20
I62
sg21
I7749
sg22
I112835
sg23
I249
sg24
I16
sg470
I19999
sg865
I1
sg26
I32
sg27
I3800
sg28
I3151
sg96
I1446947916571
sg30
I3047
sg31
I3361
sg32
I00
sg735
I1057
sg34
VCLASSIC
p1040
sg36
I87
sg44
I4
sg997
I70
sg38
I6
sg39
I2002884643
sg473
I2706
sg40
I30
sg41
I5
sg867
I71
sg33
I1566
sg43
I11
sg45
I10760
sg474
I70
sg46
(lp1041
(dp1042
VteamId
p1043
I200
sVchampionId
p1044
I41
sVsummonerId
p1045
I49981948
sa(dp1046
VteamId
p1047
I200
sVchampionId
p1048
I31
sVsummonerId
p1049
I41184053
sa(dp1050
VteamId
p1051
I200
sVchampionId
p1052
I203
sVsummonerId
p1053
I22064753
sa(dp1054
VteamId
p1055
I100
sVchampionId
p1056
I22
sVsummonerId
p1057
I19509562
sa(dp1058
VteamId
p1059
I100
sVchampionId
p1060
I131
sVsummonerId
p1061
I37359011
sa(dp1062
VteamId
p1063
I100
sVchampionId
p1064
I412
sVsummonerId
p1065
I24820337
sa(dp1066
VteamId
p1067
I100
sVchampionId
p1068
I91
sVsummonerId
p1069
I54966768
sa(dp1070
VteamId
p1071
I200
sVchampionId
p1072
I157
sVsummonerId
p1073
I46186932
sa(dp1074
VteamId
p1075
I200
sVchampionId
p1076
I5
sVsummonerId
p1077
I30189710
sasg84
I20091
sg85
I1345
sg86
VMATCHED_GAME
p1078
sg88
I1026
sg89
I11228
sg90
I13141
sg91
I1
sg92
I100
sg93
I7
sg94
I35071
sg95
I1
sg29
I3725
sg97
I24615
sbag1
(g2
g3
Ntp1079
Rp1080
(dp1081
g7
I2276
sg8
I01
sg9
I11
sg11
I11
sg12
I131070
sg13
I631
sg14
I3
sg15
VNORMAL
p1082
sg17
I100
sg18
I1
sg20
I103
sg21
I9897
sg822
I1
sg23
I475
sg24
I16
sg470
I9751
sg865
I12
sg26
I77
sg27
I3047
sg28
I1043
sg96
I1446950493131
sg30
I3078
sg31
I3361
sg32
I00
sg735
I1036
sg34
VCLASSIC
p1083
sg36
I67
sg44
I4
sg25
I4
sg997
I49
sg38
I3
sg39
I2002915969
sg691
I560
sg473
I38
sg40
I30
sg41
I7
sg867
I61
sg33
I5023
sg43
I11
sg45
I9608
sg474
I1269
sg46
(lp1084
(dp1085
VteamId
p1086
I200
sVchampionId
p1087
I222
sVsummonerId
p1088
I37434556
sa(dp1089
VteamId
p1090
I200
sVchampionId
p1091
I25
sVsummonerId
p1092
I23759431
sa(dp1093
VteamId
p1094
I100
sVchampionId
p1095
I53
sVsummonerId
p1096
I37359011
sa(dp1097
VteamId
p1098
I100
sVchampionId
p1099
I22
sVsummonerId
p1100
I19509562
sa(dp1101
VteamId
p1102
I100
sVchampionId
p1103
I64
sVsummonerId
p1104
I24820337
sa(dp1105
VteamId
p1106
I200
sVchampionId
p1107
I64
sVsummonerId
p1108
I59641047
sa(dp1109
VteamId
p1110
I100
sVchampionId
p1111
I161
sVsummonerId
p1112
I63645144
sa(dp1113
VteamId
p1114
I200
sVchampionId
p1115
I99
sVsummonerId
p1116
I47517931
sa(dp1117
VteamId
p1118
I200
sVchampionId
p1119
I92
sVsummonerId
p1120
I48364014
sasg84
I91061
sg85
I782
sg86
VMATCHED_GAME
p1121
sg88
I1053
sg89
I11232
sg513
I1
sg90
I6923
sg91
I1
sg92
I100
sg93
I5
sg94
I32929
sg22
I30258
sg29
I3709
sg97
I22993
sbag1
(g2
g3
Ntp1122
Rp1123
(dp1124
g7
I1814
sg8
I00
sg9
I16
sg11
I11
sg12
I38334
sg13
I9649
sg14
I4
sg15
VNORMAL
p1125
sg17
I200
sg18
I1
sg20
I58
sg21
I6535
sg23
I137
sg24
I12
sg25
I2
sg26
I25
sg27
I2049
sg28
I3165
sg96
I1446953100312
sg30
I3092
sg31
I3341
sg32
I00
sg33
I828
sg34
VCLASSIC
p1126
sg36
I45
sg37
I1
sg997
I2
sg38
I2
sg39
I2003000101
sg473
I1510
sg40
I30
sg41
I5
sg867
I2
sg42
I2
sg43
I3
sg44
I4
sg45
I7155
sg46
(lp1127
(dp1128
VteamId
p1129
I200
sVchampionId
p1130
I203
sVsummonerId
p1131
I21348481
sa(dp1132
VteamId
p1133
I100
sVchampionId
p1134
I53
sVsummonerId
p1135
I19235111
sa(dp1136
VteamId
p1137
I200
sVchampionId
p1138
I201
sVsummonerId
p1139
I37359011
sa(dp1140
VteamId
p1141
I200
sVchampionId
p1142
I102
sVsummonerId
p1143
I19509562
sa(dp1144
VteamId
p1145
I100
sVchampionId
p1146
I7
sVsummonerId
p1147
I34986650
sa(dp1148
VteamId
p1149
I200
sVchampionId
p1150
I55
sVsummonerId
p1151
I24820337
sa(dp1152
VteamId
p1153
I100
sVchampionId
p1154
I79
sVsummonerId
p1155
I47117502
sa(dp1156
VteamId
p1157
I100
sVchampionId
p1158
I67
sVsummonerId
p1159
I64976140
sa(dp1160
VteamId
p1161
I100
sVchampionId
p1162
I122
sVsummonerId
p1163
I65250185
sasg84
I7229
sg85
I60
sg86
VMATCHED_GAME
p1164
sg88
I1026
sg89
I7434
sg90
I10477
sg91
I1
sg92
I200
sg93
I10
sg94
I16860
sg22
I31105
sg29
I3117
sg97
I8815
sbag1
(g2
g3
Ntp1165
Rp1166
(dp1167
g7
I1823
sg8
I00
sg9
I17
sg11
I11
sg12
I34455
sg13
I4130
sg14
I4
sg15
VRANKED_SOLO_5x5
p1168
sg17
I100
sg18
I1
sg32
I00
sg21
I5167
sg23
I82
sg24
I13
sg25
I2
sg26
I25
sg27
I2049
sg28
I1052
sg29
I3117
sg30
I3092
sg31
I3341
sg20
I58
sg33
I1218
sg34
VCLASSIC
p1169
sg36
I26
sg38
I1
sg39
I2005518696
sg473
I456
sg40
I30
sg41
I4
sg42
I2
sg43
I3
sg44
I4
sg45
I5190
sg46
(lp1170
(dp1171
VteamId
p1172
I200
sVchampionId
p1173
I412
sVsummonerId
p1174
I35413456
sa(dp1175
VteamId
p1176
I100
sVchampionId
p1177
I238
sVsummonerId
p1178
I35800398
sa(dp1179
VteamId
p1180
I200
sVchampionId
p1181
I58
sVsummonerId
p1182
I23428469
sa(dp1183
VteamId
p1184
I100
sVchampionId
p1185
I68
sVsummonerId
p1186
I47532464
sa(dp1187
VteamId
p1188
I100
sVchampionId
p1189
I203
sVsummonerId
p1190
I41270903
sa(dp1191
VteamId
p1192
I200
sVchampionId
p1193
I35
sVsummonerId
p1194
I21134483
sa(dp1195
VteamId
p1196
I200
sVchampionId
p1197
I13
sVsummonerId
p1198
I47513498
sa(dp1199
VteamId
p1200
I200
sVchampionId
p1201
I51
sVsummonerId
p1202
I25444047
sa(dp1203
VteamId
p1204
I100
sVchampionId
p1205
I67
sVsummonerId
p1206
I34674619
sasg84
I3882
sg85
I72
sg86
VMATCHED_GAME
p1207
sg88
I1026
sg89
I6006
sg90
I5348
sg91
I1
sg92
I100
sg93
I6
sg94
I14352
sg22
I30573
sg96
I1447193162757
sg97
I8728
sbag1
(g2
g3
Ntp1208
Rp1209
(dp1210
g7
I1916
sg43
I12
sg8
I01
sg9
I9
sg11
I11
sg12
I135903
sg13
I873
sg14
I1
sg15
VRANKED_SOLO_5x5
p1211
sg17
I200
sg18
I1
sg20
I239
sg21
I6571
sg23
I732
sg24
I16
sg470
I470
sg865
I3
sg26
I150
sg27
I3111
sg28
I3065
sg96
I1447196514670
sg30
I3071
sg31
I3340
sg32
I00
sg735
I3801
sg34
VCLASSIC
p1212
sg36
I185
sg25
I1
sg997
I3
sg38
I1
sg39
I2005554694
sg691
I329
sg473
I71
sg40
I30
sg41
I6
sg867
I6
sg42
I4
sg33
I12223
sg44
I4
sg45
I8975
sg46
(lp1213
(dp1214
VteamId
p1215
I200
sVchampionId
p1216
I131
sVsummonerId
p1217
I35063886
sa(dp1218
VteamId
p1219
I100
sVchampionId
p1220
I112
sVsummonerId
p1221
I24437038
sa(dp1222
VteamId
p1223
I200
sVchampionId
p1224
I412
sVsummonerId
p1225
I44774445
sa(dp1226
VteamId
p1227
I200
sVchampionId
p1228
I51
sVsummonerId
p1229
I47532464
sa(dp1230
VteamId
p1231
I200
sVchampionId
p1232
I64
sVsummonerId
p1233
I41287356
sa(dp1234
VteamId
p1235
I100
sVchampionId
p1236
I18
sVsummonerId
p1237
I43232638
sa(dp1238
VteamId
p1239
I100
sVchampionId
p1240
I75
sVsummonerId
p1241
I42142188
sa(dp1242
VteamId
p1243
I100
sVchampionId
p1244
I245
sVsummonerId
p1245
I69619672
sa(dp1246
VteamId
p1247
I100
sVchampionId
p1248
I16
sVsummonerId
p1249
I49071929
sasg84
I126651
sg85
I408
sg86
VMATCHED_GAME
p1250
sg88
I3801
sg89
I10123
sg90
I13097
sg91
I1
sg92
I200
sg93
I3
sg94
I15341
sg22
I8781
sg29
I1028
sg97
I8698
sbag1
(g2
g3
Ntp1251
Rp1252
(dp1253
g8
I00
sg9
I10
sg11
I11
sg12
I162835
sg14
I4
sg15
VRANKED_SOLO_5x5
p1254
sg17
I100
sg20
I65
sg21
I8001
sg24
I15
sg26
I15
sg27
I3031
sg28
I3006
sg96
I1447199171638
sg34
VCLASSIC
p1255
sg32
I00
sg33
I22985
sg31
I3340
sg997
I15
sg7
I2143
sg39
I2005569379
sg691
I744
sg473
I586
sg36
I180
sg40
I30
sg41
I7
sg867
I15
sg42
I3
sg43
I7
sg44
I4
sg45
I10090
sg46
(lp1256
(dp1257
VteamId
p1258
I200
sVchampionId
p1259
I106
sVsummonerId
p1260
I503440
sa(dp1261
VteamId
p1262
I200
sVchampionId
p1263
I99
sVsummonerId
p1264
I35861309
sa(dp1265
VteamId
p1266
I100
sVchampionId
p1267
I76
sVsummonerId
p1268
I47532464
sa(dp1269
VteamId
p1270
I100
sVchampionId
p1271
I57
sVsummonerId
p1272
I23517902
sa(dp1273
VteamId
p1274
I100
sVchampionId
p1275
I92
sVsummonerId
p1276
I51790339
sa(dp1277
VteamId
p1278
I200
sVchampionId
p1279
I223
sVsummonerId
p1280
I44016155
sa(dp1281
VteamId
p1282
I200
sVchampionId
p1283
I12
sVsummonerId
p1284
I47261333
sa(dp1285
VteamId
p1286
I200
sVchampionId
p1287
I18
sVsummonerId
p1288
I39287016
sa(dp1289
VteamId
p1290
I100
sVchampionId
p1291
I53
sVsummonerId
p1292
I35660722
sasg84
I162835
sg85
I1803
sg86
VMATCHED_GAME
p1293
sg88
I3072
sg89
I9893
sg90
I22985
sg91
I3
sg92
I100
sg93
I5
sg94
I20524
sg29
I1037
sg97
I11936
sbag1
(g2
g3
Ntp1294
Rp1295
(dp1296
g7
I1546
sg22
I44349
sg8
I01
sg9
I3
sg11
I11
sg12
I161234
sg13
I11098
sg14
I1
sg15
VNONE
p1297
sg17
I100
sg18
I5
sg19
I13
sg20
I0
sS'quadraKills'
p1298
I2
sg21
I2006
sg822
I1
sg23
I771
sg24
I17
sg470
I2357
sg865
I8
sg26
I150
sg27
I3748
sg28
I3068
sg29
I3094
sg30
I3087
sg31
I3340
sg32
I00
sg735
I3133
sg34
VCLASSIC
p1299
sg36
I112
sS'tripleKills'
p1300
I5
sg997
I13
sg38
I37
sg39
I2006161991
sg472
I8
sg33
I39576
sg40
I30
sg867
I21
sg42
I1
sg43
I12
sg44
I4
sg45
I14000
sg474
I1081
sS'pentaKills'
p1301
I1
sg84
I114527
sg86
VCUSTOM_GAME
p1302
sg88
I3158
sg89
I17486
sg691
I485
sg513
I1
sg90
I51756
sg92
I100
sg93
I4
sg94
I19434
sg95
I4
sg96
I1447261916547
sg97
I17427
sbag1
(g2
g3
Ntp1303
Rp1304
(dp1305
g7
I2324
sg43
I3
sg8
I01
sg9
I23
sg11
I11
sg12
I28302
sg13
I8596
sg14
I4
sg15
VNORMAL
p1306
sg17
I200
sg18
I1
sg32
I00
sg21
I7986
sg23
I542
sg24
I18
sg865
I1
sg26
I412
sg27
I2049
sg28
I3190
sg29
I3117
sg30
I3401
sg31
I3341
sg20
I106
sg735
I3801
sg34
VCLASSIC
p1307
sg36
I47
sg25
I7
sg38
I2
sg39
I2006447950
sg473
I640
sg40
I30
sg41
I19
sg867
I1
sg42
I2
sg33
I895
sg44
I4
sg45
I9900
sg46
(lp1308
(dp1309
VteamId
p1310
I100
sVchampionId
p1311
I5
sVsummonerId
p1312
I39043335
sa(dp1313
VteamId
p1314
I200
sVchampionId
p1315
I51
sVsummonerId
p1316
I45394630
sa(dp1317
VteamId
p1318
I100
sVchampionId
p1319
I64
sVsummonerId
p1320
I40711396
sa(dp1321
VteamId
p1322
I100
sVchampionId
p1323
I143
sVsummonerId
p1324
I48499926
sa(dp1325
VteamId
p1326
I100
sVchampionId
p1327
I203
sVsummonerId
p1328
I38976466
sa(dp1329
VteamId
p1330
I200
sVchampionId
p1331
I25
sVsummonerId
p1332
I49779698
sa(dp1333
VteamId
p1334
I200
sVchampionId
p1335
I157
sVsummonerId
p1336
I23374006
sa(dp1337
VteamId
p1338
I100
sVchampionId
p1339
I412
sVsummonerId
p1340
I57316375
sa(dp1341
VteamId
p1342
I200
sVchampionId
p1343
I107
sVsummonerId
p1344
I47797258
sasg84
I7420
sg85
I2854
sg86
VMATCHED_GAME
p1345
sg88
I3110
sg89
I11868
sg90
I9491
sg91
I4
sg92
I200
sg93
I4
sg94
I23723
sg22
I20881
sg96
I1447267302923
sg97
I15097
sbag1
(g2
g3
Ntp1346
Rp1347
(dp1348
g7
I2116
sg43
I3
sg8
I00
sg9
I20
sg11
I11
sg12
I44883
sg13
I8012
sg14
I4
sg15
VRANKED_SOLO_5x5
p1349
sg17
I200
sg18
I1
sg20
I65
sg21
I7067
sg23
I257
sg24
I14
sg470
I12
sg25
I3
sg26
I16
sg27
I2049
sg28
I3050
sg96
I1447270036533
sg30
I3069
sg31
I3341
sg32
I00
sg735
I3114
sg34
VCLASSIC
p1350
sg36
I40
sg37
I1
sg38
I1
sg39
I2006492117
sg691
I394
sg473
I380
sg40
I30
sg41
I6
sg42
I2
sg33
I691
sg44
I4
sg45
I7775
sg474
I12
sg46
(lp1351
(dp1352
VteamId
p1353
I200
sVchampionId
p1354
I92
sVsummonerId
p1355
I47532464
sa(dp1356
VteamId
p1357
I100
sVchampionId
p1358
I64
sVsummonerId
p1359
I27805632
sa(dp1360
VteamId
p1361
I200
sVchampionId
p1362
I61
sVsummonerId
p1363
I38827142
sa(dp1364
VteamId
p1365
I200
sVchampionId
p1366
I81
sVsummonerId
p1367
I31660128
sa(dp1368
VteamId
p1369
I200
sVchampionId
p1370
I111
sVsummonerId
p1371
I20765610
sa(dp1372
VteamId
p1373
I100
sVchampionId
p1374
I222
sVsummonerId
p1375
I45550241
sa(dp1376
VteamId
p1377
I100
sVchampionId
p1378
I412
sVsummonerId
p1379
I23148816
sa(dp1380
VteamId
p1381
I100
sVchampionId
p1382
I68
sVsummonerId
p1383
I30988875
sa(dp1384
VteamId
p1385
I100
sVchampionId
p1386
I7
sVsummonerId
p1387
I39614117
sasg84
I5158
sg85
I11565
sg86
VMATCHED_GAME
p1388
sg88
I3113
sg89
I9273
sg90
I8716
sg91
I5
sg92
I200
sg93
I10
sg94
I20223
sg22
I39712
sg29
I3158
sg97
I12775
sbag1
(g2
g3
Ntp1389
Rp1390
(dp1391
g7
I1668
sg8
I01
sg9
I10
sg11
I11
sg12
I67371
sg13
I10424
sg14
I4
sg15
VNORMAL
p1392
sg17
I200
sg18
I1
sg19
I2
sg20
I80
sg21
I2853
sg22
I59620
sg23
I159
sg24
I14
sg865
I2
sg26
I25
sg27
I3092
sg28
I1029
sg29
I3089
sg30
I3020
sg31
I3340
sg32
I00
sg33
I767
sg34
VCLASSIC
p1393
sg36
I97
sg997
I2
sg38
I4
sg39
I2006531971
sg473
I916
sg40
I30
sg41
I8
sg867
I4
sg42
I3
sg43
I3
sg44
I4
sg45
I7985
sg46
(lp1394
(dp1395
VteamId
p1396
I100
sVchampionId
p1397
I412
sVsummonerId
p1398
I40829054
sa(dp1399
VteamId
p1400
I200
sVchampionId
p1401
I157
sVsummonerId
p1402
I22980754
sa(dp1403
VteamId
p1404
I200
sVchampionId
p1405
I56
sVsummonerId
p1406
I47532464
sa(dp1407
VteamId
p1408
I200
sVchampionId
p1409
I54
sVsummonerId
p1410
I19509562
sa(dp1411
VteamId
p1412
I100
sVchampionId
p1413
I24
sVsummonerId
p1414
I61631029
sa(dp1415
VteamId
p1416
I200
sVchampionId
p1417
I96
sVsummonerId
p1418
I33121991
sa(dp1419
VteamId
p1420
I100
sVchampionId
p1421
I92
sVsummonerId
p1422
I47162755
sa(dp1423
VteamId
p1424
I100
sVchampionId
p1425
I55
sVsummonerId
p1426
I59715181
sa(dp1427
VteamId
p1428
I100
sVchampionId
p1429
I96
sVsummonerId
p1430
I50107498
sasg84
I7751
sg85
I252
sg86
VMATCHED_GAME
p1431
sg88
I1052
sg89
I10542
sg90
I11192
sg91
I1
sg92
I200
sg93
I2
sg94
I8567
sg95
I2
sg96
I1447275266316
sg97
I4798
sbag1
(g2
g3
Ntp1432
Rp1433
(dp1434
g7
I1459
sg8
I00
sg9
I13
sg11
I11
sg12
I15399
sg13
I4665
sg14
I4
sg15
VNORMAL
p1435
sg17
I100
sg18
I1
sg19
I2
sg20
I51
sg21
I1678
sg22
I11411
sg23
I110
sg24
I11
sg34
VCLASSIC
p1436
sg26
I412
sg27
I2049
sg28
I3801
sg29
I3117
sg30
I3401
sg31
I3341
sg32
I00
sg33
I818
sg36
I29
sg38
I3
sg39
I2006545552
sg473
I216
sg40
I30
sg41
I1
sg42
I2
sg43
I3
sg44
I4
sg45
I5000
sg46
(lp1437
(dp1438
VteamId
p1439
I100
sVchampionId
p1440
I157
sVsummonerId
p1441
I22980754
sa(dp1442
VteamId
p1443
I200
sVchampionId
p1444
I238
sVsummonerId
p1445
I52840073
sa(dp1446
VteamId
p1447
I100
sVchampionId
p1448
I98
sVsummonerId
p1449
I47532464
sa(dp1450
VteamId
p1451
I200
sVchampionId
p1452
I89
sVsummonerId
p1453
I30937471
sa(dp1454
VteamId
p1455
I100
sVchampionId
p1456
I154
sVsummonerId
p1457
I22281316
sa(dp1458
VteamId
p1459
I100
sVchampionId
p1460
I22
sVsummonerId
p1461
I19509562
sa(dp1462
VteamId
p1463
I200
sVchampionId
p1464
I92
sVsummonerId
p1465
I56436246
sa(dp1466
VteamId
p1467
I200
sVchampionId
p1468
I104
sVsummonerId
p1469
I58142395
sa(dp1470
VteamId
p1471
I200
sVchampionId
p1472
I23
sVsummonerId
p1473
I31073881
sasg84
I3988
sg85
I1024
sg86
VMATCHED_GAME
p1474
sg88
I1028
sg89
I5532
sg90
I5484
sg91
I4
sg92
I100
sg93
I3
sg94
I14628
sg95
I1
sg96
I1447277056178
sg97
I12734
sbag1
(g2
g3
Ntp1475
Rp1476
(dp1477
g7
I2259
sg43
I12
sg8
I01
sg9
I16
sg11
I11
sg12
I211757
sg13
I4281
sg14
I3
sg15
VNORMAL
p1478
sg17
I100
sg18
I1
sg19
I3
sg20
I253
sg21
I20609
sg822
I1
sg23
I55
sg24
I18
sg470
I239
sg865
I4
sg26
I58
sg27
I3074
sg28
I3047
sg96
I1447280436313
sg30
I3071
sg31
I3340
sg32
I00
sg735
I3065
sg34
VCLASSIC
p1479
sg36
I272
sg25
I2
sg38
I4
sg39
I2006573646
sg473
I1484
sg40
I30
sg41
I8
sg867
I4
sg33
I26373
sg44
I4
sg45
I14300
sg474
I239
sg46
(lp1480
(dp1481
VteamId
p1482
I100
sVchampionId
p1483
I81
sVsummonerId
p1484
I22980754
sa(dp1485
VteamId
p1486
I100
sVchampionId
p1487
I80
sVsummonerId
p1488
I47532464
sa(dp1489
VteamId
p1490
I200
sVchampionId
p1491
I81
sVsummonerId
p1492
I39592874
sa(dp1493
VteamId
p1494
I200
sVchampionId
p1495
I98
sVsummonerId
p1496
I38591140
sa(dp1497
VteamId
p1498
I100
sVchampionId
p1499
I114
sVsummonerId
p1500
I22193810
sa(dp1501
VteamId
p1502
I100
sVchampionId
p1503
I89
sVsummonerId
p1504
I19509562
sa(dp1505
VteamId
p1506
I200
sVchampionId
p1507
I38
sVsummonerId
p1508
I28669579
sa(dp1509
VteamId
p1510
I200
sVchampionId
p1511
I77
sVsummonerId
p1512
I56438019
sa(dp1513
VteamId
p1514
I200
sVchampionId
p1515
I12
sVsummonerId
p1516
I55500699
sasg84
I199861
sg85
I8089
sg86
VMATCHED_GAME
p1517
sg88
I3742
sg89
I14645
sg513
I2
sg90
I30895
sg91
I1
sg92
I100
sg93
I4
sg94
I41642
sg95
I1
sg22
I11656
sg97
I19548
sbag1
(g2
g3
Ntp1518
Rp1519
(dp1520
g7
I3789
sg43
I12
sg8
I00
sg9
I22
sg11
I11
sg12
I388238
sg13
I1095
sg14
I1
sg15
VNORMAL
p1521
sg17
I100
sg18
I1
sg20
I94
sg21
I5869
sg23
I117
sg24
I18
sg470
I4276
sg25
I3
sg26
I114
sg27
I3074
sg28
I3071
sg96
I1447284701921
sg30
I1324
sg31
I3340
sg32
I00
sg735
I3156
sg34
VCLASSIC
p1522
sg36
I360
sg997
I34
sg38
I3
sg39
I2006620427
sg691
I970
sg473
I2322
sg40
I30
sg41
I5
sg867
I34
sg42
I4
sg33
I8722
sg44
I4
sg45
I20200
sg474
I4180
sg46
(lp1523
(dp1524
VteamId
p1525
I200
sVchampionId
p1526
I157
sVsummonerId
p1527
I55331803
sa(dp1528
VteamId
p1529
I100
sVchampionId
p1530
I51
sVsummonerId
p1531
I22980754
sa(dp1532
VteamId
p1533
I100
sVchampionId
p1534
I80
sVsummonerId
p1535
I47532464
sa(dp1536
VteamId
p1537
I200
sVchampionId
p1538
I99
sVsummonerId
p1539
I59270811
sa(dp1540
VteamId
p1541
I100
sVchampionId
p1542
I101
sVsummonerId
p1543
I22193810
sa(dp1544
VteamId
p1545
I100
sVchampionId
p1546
I53
sVsummonerId
p1547
I19509562
sa(dp1548
VteamId
p1549
I200
sVchampionId
p1550
I104
sVsummonerId
p1551
I24579380
sa(dp1552
VteamId
p1553
I200
sVchampionId
p1554
I75
sVsummonerId
p1555
I36807944
sa(dp1556
VteamId
p1557
I200
sVchampionId
p1558
I96
sVsummonerId
p1559
I23092968
sasg84
I364447
sg85
I12017
sg86
VMATCHED_GAME
p1560
sg88
I3026
sg89
I22408
sg513
I1
sg90
I13999
sg91
I4
sg92
I100
sg93
I11
sg94
I47914
sg22
I19514
sg29
I3812
sg97
I39722
sba.